 vnadll

 Timestamp is 413b2dd4 (Sun Sep 05 16:16:36 2004)

 Preferred load address is 10000000

 Start         Length     Name                   Class
 0001:00000000 000131ecH .text                   CODE
 0001:000131f0 0000007aH .text$x                 CODE
 0002:00000000 0000176dH .rdata                  DATA
 0002:00001770 000000c8H .xdata$x                DATA
 0002:00001840 000001e2H .edata                  DATA
 0003:00000000 00000004H .CRT$XCA                DATA
 0003:00000004 00000004H .CRT$XCZ                DATA
 0003:00000008 00000004H .CRT$XIA                DATA
 0003:0000000c 00000004H .CRT$XIC                DATA
 0003:00000010 00000004H .CRT$XIY                DATA
 0003:00000014 00000004H .CRT$XIZ                DATA
 0003:00000018 00000004H .CRT$XPA                DATA
 0003:0000001c 00000004H .CRT$XPX                DATA
 0003:00000020 00000004H .CRT$XPZ                DATA
 0003:00000024 00000004H .CRT$XTA                DATA
 0003:00000028 00000004H .CRT$XTB                DATA
 0003:0000002c 00000004H .CRT$XTZ                DATA
 0003:00000030 00003590H .data                   DATA
 0003:000035c0 00001600H .bss                    DATA
 0004:00000000 00000014H .idata$2                DATA
 0004:00000014 00000014H .idata$3                DATA
 0004:00000028 00000130H .idata$4                DATA
 0004:00000158 00000130H .idata$5                DATA
 0004:00000288 00000558H .idata$6                DATA

  Address         Publics by Value              Rva+Base   Lib:Object

 0001:00000000       ?Out32@@YG_NFF@Z           10001000 f io32.obj
 0001:00000179       ?Inp32@@YGGF@Z             10001179 f io32.obj
 0001:000003e0       ??_GVNADevice@@QAEPAXI@Z   100013e0 f io32.obj
 0001:00000410       ?GetHandle@VNADevice@@AAEXXZ 10001410 f vnaio.obj
 0001:00000491       ?ReleaseHandle@VNADevice@@AAEXXZ 10001491 f vnaio.obj
 0001:000004b5       ?ToggleReset@VNADevice@@AAE_N_N@Z 100014b5 f vnaio.obj
 0001:00000559       ??0VNADevice@@QAE@XZ       10001559 f vnaio.obj
 0001:000005dc       ??1VNADevice@@QAE@XZ       100015dc f vnaio.obj
 0001:00000614       ?Init@VNADevice@@QAG_NXZ   10001614 f vnaio.obj
 0001:0000062d       ?get_State@VNADevice@@QAGHXZ 1000162d f vnaio.obj
 0001:0000063a       ?get_BytesReturned@VNADevice@@QAGHXZ 1000163a f vnaio.obj
 0001:0000064c       ?Start@VNADevice@@QAG_NXZ  1000164c f vnaio.obj
 0001:0000065d       ?Stop@VNADevice@@QAG_NXZ   1000165d f vnaio.obj
 0001:0000066e       ?Read@VNADevice@@QAG_NPAU_VNA_RXBUFFER@@@Z 1000166e f vnaio.obj
 0001:000006e1       ?Write@VNADevice@@QAG_NPAT_VNA_TXBUFFER@@H@Z 100016e1 f vnaio.obj
 0001:00000760       ??0Helper@@QAE@XZ          10001760 f vnaio.obj
 0001:00000810       ??_GHelper@@QAEPAXI@Z      10001810 f vnaio.obj
 0001:00000840       ??1Helper@@QAE@XZ          10001840 f vnaio.obj
 0001:00000910       ?vnawrite@@YG_NPAXF@Z      10001910 f vnawrapper.obj
 0001:000009ce       ?vnaread@@YG_NPAXPAF@Z     100019ce f vnawrapper.obj
 0001:00000aac       _CreateFileA@28            10001aac f kernel32:KERNEL32.dll
 0001:00000ab2       _CloseHandle@4             10001ab2 f kernel32:KERNEL32.dll
 0001:00000ab8       _DeviceIoControl@32        10001ab8 f kernel32:KERNEL32.dll
 0001:00000ac0       ??3@YAXPAX@Z               10001ac0 f LIBCMTD:dbgdel.obj
 0001:00000b70       ??2@YAPAXI@Z               10001b70 f LIBCMTD:new.obj
 0001:00000b90       ?_JumpToContinuation@@YGXPAXPAUEHRegistrationNode@@@Z 10001b90 f LIBCMTD:trnsctrl.obj
 0001:00000bd0       ?_CallMemberFunction0@@YGXPAX0@Z 10001bd0 f LIBCMTD:trnsctrl.obj
 0001:00000be0       ?_CallMemberFunction1@@YGXPAX00@Z 10001be0 f LIBCMTD:trnsctrl.obj
 0001:00000bf0       ?_CallMemberFunction2@@YGXPAX00H@Z 10001bf0 f LIBCMTD:trnsctrl.obj
 0001:00000c00       ?_UnwindNestedFrames@@YGXPAUEHRegistrationNode@@PAUEHExceptionRecord@@@Z 10001c00 f LIBCMTD:trnsctrl.obj
 0001:00000c60       ___CxxFrameHandler         10001c60 f LIBCMTD:trnsctrl.obj
 0001:00000ca0       ___CxxLongjmpUnwind@4      10001ca0 f LIBCMTD:trnsctrl.obj
 0001:00000cd0       ?_CallCatchBlock2@@YAPAXPAUEHRegistrationNode@@PBU_s_FuncInfo@@PAXHK@Z 10001cd0 f LIBCMTD:trnsctrl.obj
 0001:00000d80       ?_CallSETranslator@@YAHPAUEHExceptionRecord@@PAUEHRegistrationNode@@PAX2PBU_s_FuncInfo@@H1@Z 10001d80 f LIBCMTD:trnsctrl.obj
 0001:00000ee0       ?_GetRangeOfTrysToCheck@@YAPBU_s_TryBlockMapEntry@@PBU_s_FuncInfo@@HHPAI1@Z 10001ee0 f LIBCMTD:trnsctrl.obj
 0001:00000f70       __global_unwind2           10001f70 f LIBCMTD:exsup.obj
 0001:00000fb2       __local_unwind2            10001fb2 f LIBCMTD:exsup.obj
 0001:0000100a       __NLG_Return2              1000200a   LIBCMTD:exsup.obj
 0001:0000101a       __abnormal_termination     1000201a f LIBCMTD:exsup.obj
 0001:0000103d       __NLG_Notify1              1000203d f LIBCMTD:exsup.obj
 0001:00001046       __NLG_Notify               10002046 f LIBCMTD:exsup.obj
 0001:00001059       __NLG_Dispatch             10002059   LIBCMTD:exsup.obj
 0001:00001060       __CRT_INIT@12              10002060 f LIBCMTD:dllcrt0.obj
 0001:00001230       __DllMainCRTStartup@12     10002230 f LIBCMTD:dllcrt0.obj
 0001:00001330       __amsg_exit                10002330 f LIBCMTD:dllcrt0.obj
 0001:00001370       __mtinitlocks              10002370 f LIBCMTD:mlock.obj
 0001:000013b0       __mtdeletelocks            100023b0 f LIBCMTD:mlock.obj
 0001:00001450       __lock                     10002450 f LIBCMTD:mlock.obj
 0001:000014f0       __unlock                   100024f0 f LIBCMTD:mlock.obj
 0001:00001510       __lock_file                10002510 f LIBCMTD:mlock.obj
 0001:00001550       __lock_file2               10002550 f LIBCMTD:mlock.obj
 0001:00001580       __unlock_file              10002580 f LIBCMTD:mlock.obj
 0001:000015c0       __unlock_file2             100025c0 f LIBCMTD:mlock.obj
 0001:000015f0       __lockerr_exit             100025f0 f LIBCMTD:mlock.obj
 0001:00001610       _malloc                    10002610 f LIBCMTD:dbgheap.obj
 0001:00001630       __malloc_dbg               10002630 f LIBCMTD:dbgheap.obj
 0001:00001660       __nh_malloc                10002660 f LIBCMTD:dbgheap.obj
 0001:00001680       __nh_malloc_dbg            10002680 f LIBCMTD:dbgheap.obj
 0001:000016e0       __heap_alloc               100026e0 f LIBCMTD:dbgheap.obj
 0001:00001700       __heap_alloc_dbg           10002700 f LIBCMTD:dbgheap.obj
 0001:00001a20       _calloc                    10002a20 f LIBCMTD:dbgheap.obj
 0001:00001a40       __calloc_dbg               10002a40 f LIBCMTD:dbgheap.obj
 0001:00001aa0       _realloc                   10002aa0 f LIBCMTD:dbgheap.obj
 0001:00001ac0       __realloc_dbg              10002ac0 f LIBCMTD:dbgheap.obj
 0001:00002020       __expand                   10003020 f LIBCMTD:dbgheap.obj
 0001:00002040       __expand_dbg               10003040 f LIBCMTD:dbgheap.obj
 0001:00002080       _free                      10003080 f LIBCMTD:dbgheap.obj
 0001:000020a0       __free_lk                  100030a0 f LIBCMTD:dbgheap.obj
 0001:000020c0       __free_dbg                 100030c0 f LIBCMTD:dbgheap.obj
 0001:000020f0       __free_dbg_lk              100030f0 f LIBCMTD:dbgheap.obj
 0001:000024e0       __msize                    100034e0 f LIBCMTD:dbgheap.obj
 0001:00002500       __msize_dbg                10003500 f LIBCMTD:dbgheap.obj
 0001:00002660       __CrtSetBreakAlloc         10003660 f LIBCMTD:dbgheap.obj
 0001:00002680       __CrtSetDbgBlockType       10003680 f LIBCMTD:dbgheap.obj
 0001:00002720       __CrtSetAllocHook          10003720 f LIBCMTD:dbgheap.obj
 0001:000027d0       __CrtCheckMemory           100037d0 f LIBCMTD:dbgheap.obj
 0001:00002b40       __CrtSetDbgFlag            10003b40 f LIBCMTD:dbgheap.obj
 0001:00002b70       __CrtDoForAllClientObjects 10003b70 f LIBCMTD:dbgheap.obj
 0001:00002be0       __CrtIsValidPointer        10003be0 f LIBCMTD:dbgheap.obj
 0001:00002c30       __CrtIsValidHeapPointer    10003c30 f LIBCMTD:dbgheap.obj
 0001:00002cc0       __CrtIsMemoryBlock         10003cc0 f LIBCMTD:dbgheap.obj
 0001:00002db0       __CrtSetDumpClient         10003db0 f LIBCMTD:dbgheap.obj
 0001:00002dd0       __CrtMemCheckpoint         10003dd0 f LIBCMTD:dbgheap.obj
 0001:00002f40       __CrtMemDifference         10003f40 f LIBCMTD:dbgheap.obj
 0001:00003070       __CrtMemDumpAllObjectsSince 10004070 f LIBCMTD:dbgheap.obj
 0001:00003450       __CrtDumpMemoryLeaks       10004450 f LIBCMTD:dbgheap.obj
 0001:000034d0       __CrtMemDumpStatistics     100044d0 f LIBCMTD:dbgheap.obj
 0001:000035a0       __CrtDbgBreak              100045a0 f LIBCMTD:dbgrpt.obj
 0001:000035b0       __CrtSetReportMode         100045b0 f LIBCMTD:dbgrpt.obj
 0001:00003610       __CrtSetReportFile         10004610 f LIBCMTD:dbgrpt.obj
 0001:00003690       __CrtSetReportHook         10004690 f LIBCMTD:dbgrpt.obj
 0001:000036b0       __CrtDbgReport             100046b0 f LIBCMTD:dbgrpt.obj
 0001:00003d50       ___InternalCxxFrameHandler 10004d50 f LIBCMTD:frame.obj
 0001:000042c0       ___FrameUnwindToState      100052c0 f LIBCMTD:frame.obj
 0001:000048e0       ?_DestructExceptionObject@@YAXPAUEHExceptionRecord@@E@Z 100058e0 f LIBCMTD:frame.obj
 0001:000049c0       __CallSettingFrame@12      100059c0 f LIBCMTD:lowhelpr.obj
 0001:000049e7       __NLG_Return               100059e7   LIBCMTD:lowhelpr.obj
 0001:00004a10       __mtinit                   10005a10 f LIBCMTD:tidtable.obj
 0001:00004aa0       __mtterm                   10005aa0 f LIBCMTD:tidtable.obj
 0001:00004ad0       __initptd                  10005ad0 f LIBCMTD:tidtable.obj
 0001:00004af0       __getptd                   10005af0 f LIBCMTD:tidtable.obj
 0001:00004b90       __freeptd                  10005b90 f LIBCMTD:tidtable.obj
 0001:00004c80       ___threadid                10005c80 f LIBCMTD:tidtable.obj
 0001:00004c90       ___threadhandle            10005c90 f LIBCMTD:tidtable.obj
 0001:00004ca0       ?terminate@@YAXXZ          10005ca0 f LIBCMTD:hooks.obj
 0001:00004d30       ?unexpected@@YAXXZ         10005d30 f LIBCMTD:hooks.obj
 0001:00004d50       ?_inconsistency@@YAXXZ     10005d50 f LIBCMTD:hooks.obj
 0001:00004de0       __cinit                    10005de0 f LIBCMTD:crt0dat.obj
 0001:00004e20       _exit                      10005e20 f LIBCMTD:crt0dat.obj
 0001:00004e40       __exit                     10005e40 f LIBCMTD:crt0dat.obj
 0001:00004e60       __cexit                    10005e60 f LIBCMTD:crt0dat.obj
 0001:00004e80       __c_exit                   10005e80 f LIBCMTD:crt0dat.obj
 0001:00004f90       __lockexit                 10005f90 f LIBCMTD:crt0dat.obj
 0001:00004fa0       __unlockexit               10005fa0 f LIBCMTD:crt0dat.obj
 0001:00004fe0       __ioinit                   10005fe0 f LIBCMTD:ioinit.obj
 0001:00005310       __ioterm                   10006310 f LIBCMTD:ioinit.obj
 0001:000053b0       __setenvp                  100063b0 f LIBCMTD:stdenvp.obj
 0001:000054f0       __setargv                  100064f0 f LIBCMTD:stdargv.obj
 0001:000059f0       __setmbcp                  100069f0 f LIBCMTD:mbctype.obj
 0001:00005e60       __getmbcp                  10006e60 f LIBCMTD:mbctype.obj
 0001:00005e70       ___initmbctable            10006e70 f LIBCMTD:mbctype.obj
 0001:00005e80       ___crtGetEnvironmentStringsW 10006e80 f LIBCMTD:aw_env.obj
 0001:00006100       ___crtGetEnvironmentStringsA 10007100 f LIBCMTD:aw_env.obj
 0001:00006320       __heap_init                10007320 f LIBCMTD:heapinit.obj
 0001:00006370       __heap_term                10007370 f LIBCMTD:heapinit.obj
 0001:000063c0       __set_error_mode           100073c0 f LIBCMTD:errmode.obj
 0001:00006410       ___set_app_type            10007410 f LIBCMTD:errmode.obj
 0001:00006420       _DllMain@12                10007420 f LIBCMTD:dllmain.obj
 0001:00006430       __FF_MSGBANNER             10007430 f LIBCMTD:crt0msg.obj
 0001:00006480       __NMSG_WRITE               10007480 f LIBCMTD:crt0msg.obj
 0001:00006680       __GET_RTERRMSG             10007680 f LIBCMTD:crt0msg.obj
 0001:000066d0       ___initstdio               100076d0 f LIBCMTD:_file.obj
 0001:00006800       ___endstdio                10007800 f LIBCMTD:_file.obj
 0001:00006820       ?_set_new_handler@@YAP6AHI@ZP6AHI@Z@Z 10007820 f LIBCMTD:handler.obj
 0001:00006850       ?_query_new_handler@@YAP6AHI@ZXZ 10007850 f LIBCMTD:handler.obj
 0001:00006860       __callnewh                 10007860 f LIBCMTD:handler.obj
 0001:00006890       _memset                    10007890 f LIBCMTD:memset.obj
 0001:000068f0       __malloc_base              100078f0 f LIBCMTD:malloc.obj
 0001:00006910       __nh_malloc_base           10007910 f LIBCMTD:malloc.obj
 0001:00006990       __heap_alloc_base          10007990 f LIBCMTD:malloc.obj
 0001:00006a00       __CrtDefaultAllocHook      10007a00 f LIBCMTD:dbghook.obj
 0001:00006a10       __expand_base              10007a10 f LIBCMTD:expand.obj
 0001:00006ad0       __realloc_base             10007ad0 f LIBCMTD:realloc.obj
 0001:00006cd0       __free_base                10007cd0 f LIBCMTD:free.obj
 0001:00006d50       __heapchk                  10007d50 f LIBCMTD:heapchk.obj
 0001:00006dd0       __heapset                  10007dd0 f LIBCMTD:heapchk.obj
 0001:00006de0       __get_sbh_threshold        10007de0 f LIBCMTD:sbheap.obj
 0001:00006df0       __set_sbh_threshold        10007df0 f LIBCMTD:sbheap.obj
 0001:00006e20       ___sbh_new_region          10007e20 f LIBCMTD:sbheap.obj
 0001:00007000       ___sbh_release_region      10008000 f LIBCMTD:sbheap.obj
 0001:00007080       ___sbh_decommit_pages      10008080 f LIBCMTD:sbheap.obj
 0001:000071e0       ___sbh_find_block          100081e0 f LIBCMTD:sbheap.obj
 0001:00007270       ___sbh_free_block          10008270 f LIBCMTD:sbheap.obj
 0001:000072e0       ___sbh_alloc_block         100082e0 f LIBCMTD:sbheap.obj
 0001:000076a0       ___sbh_alloc_block_from_page 100086a0 f LIBCMTD:sbheap.obj
 0001:00007950       ___sbh_resize_block        10008950 f LIBCMTD:sbheap.obj
 0001:00007ac0       ___sbh_heap_check          10008ac0 f LIBCMTD:sbheap.obj
 0001:00007d00       _sprintf                   10008d00 f LIBCMTD:sprintf.obj
 0001:00007e00       __isctype                  10008e00 f LIBCMTD:isctype.obj
 0001:00007ec0       __itoa                     10008ec0 f LIBCMTD:xtoa.obj
 0001:00007fe0       __ltoa                     10008fe0 f LIBCMTD:xtoa.obj
 0001:00008020       __ultoa                    10009020 f LIBCMTD:xtoa.obj
 0001:00008040       __i64toa                   10009040 f LIBCMTD:xtoa.obj
 0001:00008170       __ui64toa                  10009170 f LIBCMTD:xtoa.obj
 0001:00008190       _strlen                    10009190 f LIBCMTD:strlen.obj
 0001:00008210       __snprintf                 10009210 f LIBCMTD:snprintf.obj
 0001:00008310       _strcpy                    10009310 f LIBCMTD:strcat.obj
 0001:00008320       _strcat                    10009320 f LIBCMTD:strcat.obj
 0001:00008400       __vsnprintf                10009400 f LIBCMTD:vsnprint.obj
 0001:00008500       __chkstk                   10009500   LIBCMTD:chkstk.obj
 0001:00008500       __alloca_probe             10009500   LIBCMTD:chkstk.obj
 0001:00008530       _signal                    10009530 f LIBCMTD:winsig.obj
 0001:00008800       _raise                     10009800 f LIBCMTD:winsig.obj
 0001:00008ab0       ___fpecode                 10009ab0 f LIBCMTD:winsig.obj
 0001:00008ac0       ___pxcptinfoptrs           10009ac0 f LIBCMTD:winsig.obj
 0001:00008ad0       ___crtMessageBoxA          10009ad0 f LIBCMTD:crtmbox.obj
 0001:00008b90       _strncpy                   10009b90 f LIBCMTD:strncpy.obj
 0001:00008c90       ?__CxxUnhandledExceptionFilter@@YGJPAU_EXCEPTION_POINTERS@@@Z 10009c90 f LIBCMTD:unhandld.obj
 0001:00008d00       ?__CxxSetUnhandledExceptionFilter@@YAXXZ 10009d00 f LIBCMTD:unhandld.obj
 0001:00008d20       ?__CxxRestoreUnhandledExceptionFilter@@YAXXZ 10009d20 f LIBCMTD:unhandld.obj
 0001:00008d40       ?_ValidateRead@@YAHPBXI@Z  10009d40 f LIBCMTD:validate.obj
 0001:00008d70       ?_ValidateWrite@@YAHPAXI@Z 10009d70 f LIBCMTD:validate.obj
 0001:00008da0       ?_ValidateExecute@@YAHP6GHXZ@Z 10009da0 f LIBCMTD:validate.obj
 0001:00008dd0       _strcmp                    10009dd0 f LIBCMTD:strcmp.obj
 0001:00008e5c       __except_handler3          10009e5c f LIBCMTD:exsup3.obj
 0001:00008f19       __seh_longjmp_unwind@4     10009f19 f LIBCMTD:exsup3.obj
 0001:00008f40       _memmove                   10009f40 f LIBCMTD:memmove.obj
 0001:00009280       __XcptFilter               1000a280 f LIBCMTD:winxfltr.obj
 0001:000094a0       _abort                     1000a4a0 f LIBCMTD:abort.obj
 0001:000094d0       _wcslen                    1000a4d0 f LIBCMTD:wcslen.obj
 0001:00009500       _memcpy                    1000a500 f LIBCMTD:memcpy.obj
 0001:00009840       __fcloseall                1000a840 f LIBCMTD:closeall.obj
 0001:00009920       _fflush                    1000a920 f LIBCMTD:fflush.obj
 0001:00009970       __fflush_lk                1000a970 f LIBCMTD:fflush.obj
 0001:000099c0       __flush                    1000a9c0 f LIBCMTD:fflush.obj
 0001:00009a80       __flushall                 1000aa80 f LIBCMTD:fflush.obj
 0001:00009bd0       __dosmaperr                1000abd0 f LIBCMTD:dosmap.obj
 0001:00009c70       __errno                    1000ac70 f LIBCMTD:dosmap.obj
 0001:00009c80       ___doserrno                1000ac80 f LIBCMTD:dosmap.obj
 0001:00009c90       __flsbuf                   1000ac90 f LIBCMTD:_flsbuf.obj
 0001:00009f10       __output                   1000af10 f LIBCMTD:output.obj
 0001:0000adb0       ___crtGetStringTypeW       1000bdb0 f LIBCMTD:aw_str.obj
 0001:0000afc0       ___crtGetStringTypeA       1000bfc0 f LIBCMTD:aw_str.obj
 0001:0000b120       __aulldiv                  1000c120 f LIBCMTD:ulldiv.obj
 0001:0000b190       __aullrem                  1000c190 f LIBCMTD:ullrem.obj
 0001:0000b210       _fclose                    1000c210 f LIBCMTD:fclose.obj
 0001:0000b2a0       __fclose_lk                1000c2a0 f LIBCMTD:fclose.obj
 0001:0000b360       __commit                   1000c360 f LIBCMTD:commit.obj
 0001:0000b440       __write                    1000c440 f LIBCMTD:write.obj
 0001:0000b4d0       __write_lk                 1000c4d0 f LIBCMTD:write.obj
 0001:0000b750       __lseek                    1000c750 f LIBCMTD:lseek.obj
 0001:0000b7e0       __lseek_lk                 1000c7e0 f LIBCMTD:lseek.obj
 0001:0000b8a0       __getbuf                   1000c8a0 f LIBCMTD:_getbuf.obj
 0001:0000b970       __isatty                   1000c970 f LIBCMTD:isatty.obj
 0001:0000b9b0       _wctomb                    1000c9b0 f LIBCMTD:wctomb.obj
 0001:0000ba30       __wctomb_lk                1000ca30 f LIBCMTD:wctomb.obj
 0001:0000bad0       __close                    1000cad0 f LIBCMTD:close.obj
 0001:0000bb50       __close_lk                 1000cb50 f LIBCMTD:close.obj
 0001:0000bc00       __freebuf                  1000cc00 f LIBCMTD:_freebuf.obj
 0001:0000bca0       __alloc_osfhnd             1000cca0 f LIBCMTD:osfinfo.obj
 0001:0000be90       __set_osfhnd               1000ce90 f LIBCMTD:osfinfo.obj
 0001:0000bf50       __free_osfhnd              1000cf50 f LIBCMTD:osfinfo.obj
 0001:0000c030       __get_osfhandle            1000d030 f LIBCMTD:osfinfo.obj
 0001:0000c0a0       __open_osfhandle           1000d0a0 f LIBCMTD:osfinfo.obj
 0001:0000c190       __lock_fhandle             1000d190 f LIBCMTD:osfinfo.obj
 0001:0000c220       __unlock_fhandle           1000d220 f LIBCMTD:osfinfo.obj
 0001:0000c250       __fptrap                   1000d250 f LIBCMTD:crt0fp.obj
 0001:0000c260       _setlocale                 1000d260 f LIBCMTD:setlocal.obj
 0001:0000c8e0       __expandlocale             1000d8e0 f LIBCMTD:setlocal.obj
 0001:0000ca70       ___init_dummy              1000da70 f LIBCMTD:setlocal.obj
 0001:0000ca80       __strcats                  1000da80 f LIBCMTD:setlocal.obj
 0001:0000cad0       ___lc_strtolc              1000dad0 f LIBCMTD:setlocal.obj
 0001:0000cc30       ___lc_lctostr              1000dc30 f LIBCMTD:setlocal.obj
 0001:0000cca0       ___init_time               1000dca0 f LIBCMTD:inittime.obj
 0001:0000d7e0       ___init_numeric            1000e7e0 f LIBCMTD:initnum.obj
 0001:0000db10       ___init_monetary           1000eb10 f LIBCMTD:initmon.obj
 0001:0000df70       ___init_ctype              1000ef70 f LIBCMTD:initctyp.obj
 0001:0000e310       ___init_collate            1000f310 f LIBCMTD:initcoll.obj
 0001:0000e320       _strcspn                   1000f320 f LIBCMTD:strcspn.obj
 0001:0000e360       _strncmp                   1000f360 f LIBCMTD:strncmp.obj
 0001:0000e3a0       _strpbrk                   1000f3a0 f LIBCMTD:strpbrk.obj
 0001:0000e3e0       ___get_qualified_locale    1000f3e0 f LIBCMTD:getqloc.obj
 0001:0000ea80       __Getdays                  1000fa80 f LIBCMTD:strftime.obj
 0001:0000ebb0       __Getmonths                1000fbb0 f LIBCMTD:strftime.obj
 0001:0000ece0       __Gettnames                1000fce0 f LIBCMTD:strftime.obj
 0001:0000f050       _strftime                  10010050 f LIBCMTD:strftime.obj
 0001:0000f070       __Strftime                 10010070 f LIBCMTD:strftime.obj
 0001:0000fe20       ___getlocaleinfo           10010e20 f LIBCMTD:inithelp.obj
 0001:000100b0       _localeconv                100110b0 f LIBCMTD:lconv.obj
 0001:000100c0       ___crtGetLocaleInfoW       100110c0 f LIBCMTD:aw_loc.obj
 0001:00010240       ___crtGetLocaleInfoA       10011240 f LIBCMTD:aw_loc.obj
 0001:000103d0       _wcstol                    100113d0 f LIBCMTD:wcstol.obj
 0001:000106d0       _wcstoul                   100116d0 f LIBCMTD:wcstol.obj
 0001:000106f0       _atol                      100116f0 f LIBCMTD:atox.obj
 0001:000107f0       _atoi                      100117f0 f LIBCMTD:atox.obj
 0001:00010810       __atoi64                   10011810 f LIBCMTD:atox.obj
 0001:00010940       __stricmp                  10011940 f LIBCMTD:stricmp.obj
 0001:00010940       __strcmpi                  10011940 f LIBCMTD:stricmp.obj
 0001:00010a10       ___tzset                   10011a10 f LIBCMTD:tzset.obj
 0001:00010a50       __tzset                    10011a50 f LIBCMTD:tzset.obj
 0001:00010dd0       __isindst                  10011dd0 f LIBCMTD:tzset.obj
 0001:00011300       _towupper                  10012300 f LIBCMTD:towupper.obj
 0001:000113b0       __towupper_lk              100123b0 f LIBCMTD:towupper.obj
 0001:00011470       _iswctype                  10012470 f LIBCMTD:iswctype.obj
 0001:000114f0       _is_wctype                 100124f0 f LIBCMTD:iswctype.obj
 0001:00011510       __allmul                   10012510 f LIBCMTD:llmul.obj
 0001:00011550       __tolower                  10012550 f LIBCMTD:tolower.obj
 0001:00011560       _tolower                   10012560 f LIBCMTD:tolower.obj
 0001:00011600       __tolower_lk               10012600 f LIBCMTD:tolower.obj
 0001:00011730       _wcstombs                  10012730 f LIBCMTD:wcstombs.obj
 0001:000117b0       __wcstombs_lk              100127b0 f LIBCMTD:wcstombs.obj
 0001:00011b10       _getenv                    10012b10 f LIBCMTD:getenv.obj
 0001:00011b40       __getenv_lk                10012b40 f LIBCMTD:getenv.obj
 0001:00011c00       ___crtLCMapStringW         10012c00 f LIBCMTD:aw_map.obj
 0001:00011f10       ___crtLCMapStringA         10012f10 f LIBCMTD:aw_map.obj
 0001:00012220       __mbsnbicoll               10013220 f LIBCMTD:mbsnbico.obj
 0001:00012270       ___wtomb_environ           10013270 f LIBCMTD:wtombenv.obj
 0001:00012320       ___crtCompareStringW       10013320 f LIBCMTD:aw_cmp.obj
 0001:00012620       ___crtCompareStringA       10013620 f LIBCMTD:aw_cmp.obj
 0001:00012a30       ___crtsetenv               10013a30 f LIBCMTD:setenv.obj
 0001:00012e80       __mbschr                   10013e80 f LIBCMTD:mbschr.obj
 0001:00012f80       _strchr                    10013f80 f LIBCMTD:strchr.obj
 0001:00012f86       ___from_strstr_to_strchr   10013f86   LIBCMTD:strchr.obj
 0001:0001303c       _RtlUnwind@16              1001403c f kernel32:KERNEL32.dll
 0001:00013042       _GetCommandLineA@0         10014042 f kernel32:KERNEL32.dll
 0001:00013048       _GetProcAddress@8          10014048 f kernel32:KERNEL32.dll
 0001:0001304e       _GetModuleHandleA@4        1001404e f kernel32:KERNEL32.dll
 0001:00013054       _GetVersion@0              10014054 f kernel32:KERNEL32.dll
 0001:0001305a       _InitializeCriticalSection@4 1001405a f kernel32:KERNEL32.dll
 0001:00013060       _DeleteCriticalSection@4   10014060 f kernel32:KERNEL32.dll
 0001:00013066       _EnterCriticalSection@4    10014066 f kernel32:KERNEL32.dll
 0001:0001306c       _LeaveCriticalSection@4    1001406c f kernel32:KERNEL32.dll
 0001:00013072       _ExitProcess@4             10014072 f kernel32:KERNEL32.dll
 0001:00013078       _FatalAppExitA@8           10014078 f kernel32:KERNEL32.dll
 0001:0001307e       _IsBadWritePtr@8           1001407e f kernel32:KERNEL32.dll
 0001:00013084       _IsBadReadPtr@8            10014084 f kernel32:KERNEL32.dll
 0001:0001308a       _HeapValidate@12           1001408a f kernel32:KERNEL32.dll
 0001:00013090       _DebugBreak@0              10014090 f kernel32:KERNEL32.dll
 0001:00013096       _GetStdHandle@4            10014096 f kernel32:KERNEL32.dll
 0001:0001309c       _WriteFile@20              1001409c f kernel32:KERNEL32.dll
 0001:000130a2       _InterlockedDecrement@4    100140a2 f kernel32:KERNEL32.dll
 0001:000130a8       _OutputDebugStringA@4      100140a8 f kernel32:KERNEL32.dll
 0001:000130ae       _LoadLibraryA@4            100140ae f kernel32:KERNEL32.dll
 0001:000130b4       _InterlockedIncrement@4    100140b4 f kernel32:KERNEL32.dll
 0001:000130ba       _GetModuleFileNameA@12     100140ba f kernel32:KERNEL32.dll
 0001:000130c0       _GetCurrentThreadId@0      100140c0 f kernel32:KERNEL32.dll
 0001:000130c6       _TlsSetValue@8             100140c6 f kernel32:KERNEL32.dll
 0001:000130cc       _TlsAlloc@0                100140cc f kernel32:KERNEL32.dll
 0001:000130d2       _TlsFree@4                 100140d2 f kernel32:KERNEL32.dll
 0001:000130d8       _SetLastError@4            100140d8 f kernel32:KERNEL32.dll
 0001:000130de       _TlsGetValue@4             100140de f kernel32:KERNEL32.dll
 0001:000130e4       _GetLastError@0            100140e4 f kernel32:KERNEL32.dll
 0001:000130ea       _GetCurrentThread@0        100140ea f kernel32:KERNEL32.dll
 0001:000130f0       _TerminateProcess@8        100140f0 f kernel32:KERNEL32.dll
 0001:000130f6       _GetCurrentProcess@0       100140f6 f kernel32:KERNEL32.dll
 0001:000130fc       _SetHandleCount@4          100140fc f kernel32:KERNEL32.dll
 0001:00013102       _GetFileType@4             10014102 f kernel32:KERNEL32.dll
 0001:00013108       _GetStartupInfoA@4         10014108 f kernel32:KERNEL32.dll
 0001:0001310e       _GetCPInfo@8               1001410e f kernel32:KERNEL32.dll
 0001:00013114       _GetACP@0                  10014114 f kernel32:KERNEL32.dll
 0001:0001311a       _GetOEMCP@0                1001411a f kernel32:KERNEL32.dll
 0001:00013120       _FreeEnvironmentStringsA@4 10014120 f kernel32:KERNEL32.dll
 0001:00013126       _MultiByteToWideChar@24    10014126 f kernel32:KERNEL32.dll
 0001:0001312c       _FreeEnvironmentStringsW@4 1001412c f kernel32:KERNEL32.dll
 0001:00013132       _GetEnvironmentStrings@0   10014132 f kernel32:KERNEL32.dll
 0001:00013138       _GetEnvironmentStringsW@0  10014138 f kernel32:KERNEL32.dll
 0001:0001313e       _WideCharToMultiByte@32    1001413e f kernel32:KERNEL32.dll
 0001:00013144       _HeapDestroy@4             10014144 f kernel32:KERNEL32.dll
 0001:0001314a       _HeapCreate@12             1001414a f kernel32:KERNEL32.dll
 0001:00013150       _VirtualFree@12            10014150 f kernel32:KERNEL32.dll
 0001:00013156       _HeapAlloc@12              10014156 f kernel32:KERNEL32.dll
 0001:0001315c       _HeapReAlloc@16            1001415c f kernel32:KERNEL32.dll
 0001:00013162       _HeapFree@12               10014162 f kernel32:KERNEL32.dll
 0001:00013168       _VirtualAlloc@16           10014168 f kernel32:KERNEL32.dll
 0001:0001316e       _SetConsoleCtrlHandler@8   1001416e f kernel32:KERNEL32.dll
 0001:00013174       _SetUnhandledExceptionFilter@4 10014174 f kernel32:KERNEL32.dll
 0001:0001317a       _IsBadCodePtr@4            1001417a f kernel32:KERNEL32.dll
 0001:00013180       _UnhandledExceptionFilter@4 10014180 f kernel32:KERNEL32.dll
 0001:00013186       _GetStringTypeA@20         10014186 f kernel32:KERNEL32.dll
 0001:0001318c       _GetStringTypeW@16         1001418c f kernel32:KERNEL32.dll
 0001:00013192       _FlushFileBuffers@4        10014192 f kernel32:KERNEL32.dll
 0001:00013198       _SetFilePointer@16         10014198 f kernel32:KERNEL32.dll
 0001:0001319e       _SetStdHandle@8            1001419e f kernel32:KERNEL32.dll
 0001:000131a4       _Sleep@4                   100141a4 f kernel32:KERNEL32.dll
 0001:000131aa       _IsValidLocale@8           100141aa f kernel32:KERNEL32.dll
 0001:000131b0       _IsValidCodePage@4         100141b0 f kernel32:KERNEL32.dll
 0001:000131b6       _GetUserDefaultLCID@0      100141b6 f kernel32:KERNEL32.dll
 0001:000131bc       _GetLocaleInfoA@16         100141bc f kernel32:KERNEL32.dll
 0001:000131c2       _GetLocaleInfoW@16         100141c2 f kernel32:KERNEL32.dll
 0001:000131c8       _GetTimeZoneInformation@4  100141c8 f kernel32:KERNEL32.dll
 0001:000131ce       _LCMapStringA@24           100141ce f kernel32:KERNEL32.dll
 0001:000131d4       _LCMapStringW@24           100141d4 f kernel32:KERNEL32.dll
 0001:000131da       _CompareStringA@24         100141da f kernel32:KERNEL32.dll
 0001:000131e0       _CompareStringW@24         100141e0 f kernel32:KERNEL32.dll
 0001:000131e6       _SetEnvironmentVariableA@8 100141e6 f kernel32:KERNEL32.dll
 0002:00000054       ??_C@_0L@OFGA@dbgdel?4cpp?$AA@ 10015054   LIBCMTD:dbgdel.obj
 0002:00000060       ??_C@_0CH@PHOC@_BLOCK_TYPE_IS_VALID?$CIpHead?9?$DOnBlo@ 10015060   LIBCMTD:dbgdel.obj
 0002:00000088       ??_C@_05EODD@IsTNT?$AA@    10015088   LIBCMTD:dllcrt0.obj
 0002:00000090       ??_C@_0N@IDOE@kernel32?4dll?$AA@ 10015090   LIBCMTD:dllcrt0.obj
 0002:000000a0       ??_C@_07PDLA@mlock?4c?$AA@ 100150a0   LIBCMTD:mlock.obj
 0002:000000a8       ??_C@_06DPMO@Client?$AA@   100150a8   LIBCMTD:dbgheap.obj
 0002:000000b0       ??_C@_06BAFM@Ignore?$AA@   100150b0   LIBCMTD:dbgheap.obj
 0002:000000b8       ??_C@_03DICE@CRT?$AA@      100150b8   LIBCMTD:dbgheap.obj
 0002:000000bc       ??_C@_06BILL@Normal?$AA@   100150bc   LIBCMTD:dbgheap.obj
 0002:000000c4       ??_C@_04NEN@Free?$AA@      100150c4   LIBCMTD:dbgheap.obj
 0002:000000cc       ??_C@_0DC@CGID@Error?3?5memory?5allocation?3?5bad?5me@ 100150cc   LIBCMTD:dbgheap.obj
 0002:00000100       ??_C@_0CE@FMIA@Invalid?5allocation?5size?3?5?$CFu?5byte@ 10015100   LIBCMTD:dbgheap.obj
 0002:00000124       ??_C@_02DILL@?$CFs?$AA@    10015124   LIBCMTD:dbgheap.obj
 0002:00000128       ??_C@_0CB@CPBI@Client?5hook?5allocation?5failure?4?6@ 10015128   LIBCMTD:dbgheap.obj
 0002:0000014c       ??_C@_0DF@DKHF@Client?5hook?5allocation?5failure?5a@ 1001514c   LIBCMTD:dbgheap.obj
 0002:00000184       ??_C@_09IMJC@dbgheap?4c?$AA@ 10015184   LIBCMTD:dbgheap.obj
 0002:00000190       ??_C@_0BC@EPKL@_CrtCheckMemory?$CI?$CJ?$AA@ 10015190   LIBCMTD:dbgheap.obj
 0002:000001a4       ??_C@_0BK@JDHA@_pFirstBlock?5?$DN?$DN?5pOldBlock?$AA@ 100151a4   LIBCMTD:dbgheap.obj
 0002:000001c0       ??_C@_0BJ@NMEF@_pLastBlock?5?$DN?$DN?5pOldBlock?$AA@ 100151c0   LIBCMTD:dbgheap.obj
 0002:000001dc       ??_C@_0DC@BOCN@fRealloc?5?$HM?$HM?5?$CI?$CBfRealloc?5?$CG?$CG?5pNewBl@ 100151dc   LIBCMTD:dbgheap.obj
 0002:00000210       ??_C@_0DK@DKOM@_BLOCK_TYPE?$CIpOldBlock?9?$DOnBlockUse@ 10015210   LIBCMTD:dbgheap.obj
 0002:0000024c       ??_C@_0EF@EDKM@pOldBlock?9?$DOnLine?5?$DN?$DN?5IGNORE_LINE?5@ 1001524c   LIBCMTD:dbgheap.obj
 0002:00000294       ??_C@_0CC@GPMO@_CrtIsValidHeapPointer?$CIpUserData@ 10015294   LIBCMTD:dbgheap.obj
 0002:000002b8       ??_C@_0CN@FHGE@Allocation?5too?5large?5or?5negative@ 100152b8   LIBCMTD:dbgheap.obj
 0002:000002e8       ??_C@_0CE@EAMN@Client?5hook?5re?9allocation?5failur@ 100152e8   LIBCMTD:dbgheap.obj
 0002:0000030c       ??_C@_0DI@KKMM@Client?5hook?5re?9allocation?5failur@ 1001530c   LIBCMTD:dbgheap.obj
 0002:00000344       ??_C@_0BG@JCEC@_pFirstBlock?5?$DN?$DN?5pHead?$AA@ 10015344   LIBCMTD:dbgheap.obj
 0002:0000035c       ??_C@_0BF@NLNN@_pLastBlock?5?$DN?$DN?5pHead?$AA@ 1001535c   LIBCMTD:dbgheap.obj
 0002:00000374       ??_C@_0BO@PLHH@pHead?9?$DOnBlockUse?5?$DN?$DN?5nBlockUse?$AA@ 10015374   LIBCMTD:dbgheap.obj
 0002:00000394       ??_C@_0DN@KKIO@pHead?9?$DOnLine?5?$DN?$DN?5IGNORE_LINE?5?$CG?$CG?5p@ 10015394   LIBCMTD:dbgheap.obj
 0002:000003d4       ??_C@_0CK@OJNB@DAMAGE?3?5after?5?$CFhs?5block?5?$CI?$CD?$CFd?$CJ?5at@ 100153d4   LIBCMTD:dbgheap.obj
 0002:00000400       ??_C@_0CL@IJIL@DAMAGE?3?5before?5?$CFhs?5block?5?$CI?$CD?$CFd?$CJ?5a@ 10015400   LIBCMTD:dbgheap.obj
 0002:0000042c       ??_C@_0BL@MBNA@Client?5hook?5free?5failure?4?6?$AA@ 1001542c   LIBCMTD:dbgheap.obj
 0002:00000448       ??_C@_0DK@EKKL@memory?5check?5error?5at?50x?$CF08X?5?$DN?50@ 10015448   LIBCMTD:dbgheap.obj
 0002:00000484       ??_C@_0CJ@GCII@?$CFhs?5located?5at?50x?$CF08X?5is?5?$CFu?5byte@ 10015484   LIBCMTD:dbgheap.obj
 0002:000004b0       ??_C@_0CA@EJPI@?$CFhs?5allocated?5at?5file?5?$CFhs?$CI?$CFd?$CJ?4?6?$AA@ 100154b0   LIBCMTD:dbgheap.obj
 0002:000004d0       ??_C@_0CJ@LHHG@DAMAGE?3?5on?5top?5of?5Free?5block?5at?5@ 100154d0   LIBCMTD:dbgheap.obj
 0002:000004fc       ??_C@_07GJHM@DAMAGED?$AA@  100154fc   LIBCMTD:dbgheap.obj
 0002:00000504       ??_C@_0CL@ODIE@_heapchk?5fails?5with?5unknown?5retu@ 10015504   LIBCMTD:dbgheap.obj
 0002:00000530       ??_C@_0CC@EHNC@_heapchk?5fails?5with?5_HEAPBADPTR?4@ 10015530   LIBCMTD:dbgheap.obj
 0002:00000554       ??_C@_0CC@JNDP@_heapchk?5fails?5with?5_HEAPBADEND?4@ 10015554   LIBCMTD:dbgheap.obj
 0002:00000578       ??_C@_0CD@DNMG@_heapchk?5fails?5with?5_HEAPBADNODE@ 10015578   LIBCMTD:dbgheap.obj
 0002:0000059c       ??_C@_0CE@JMCB@_heapchk?5fails?5with?5_HEAPBADBEGI@ 1001559c   LIBCMTD:dbgheap.obj
 0002:000005c0       ??_C@_0CD@MEMI@Bad?5memory?5block?5found?5at?50x?$CF08X@ 100155c0   LIBCMTD:dbgheap.obj
 0002:000005e4       ??_C@_0CI@GMAO@_CrtMemCheckPoint?3?5NULL?5state?5po@ 100155e4   LIBCMTD:dbgheap.obj
 0002:0000060c       ??_C@_0CI@MNAE@_CrtMemDifference?3?5NULL?5state?5po@ 1001560c   LIBCMTD:dbgheap.obj
 0002:00000634       ??_C@_0BH@PKIJ@Object?5dump?5complete?4?6?$AA@ 10015634   LIBCMTD:dbgheap.obj
 0002:0000064c       ??_C@_0DB@DBPF@crt?5block?5at?50x?$CF08X?0?5subtype?5?$CFx?0@ 1001564c   LIBCMTD:dbgheap.obj
 0002:00000680       ??_C@_0CI@JLM@normal?5block?5at?50x?$CF08X?0?5?$CFu?5bytes@ 10015680   LIBCMTD:dbgheap.obj
 0002:000006a8       ??_C@_0DE@PFEA@client?5block?5at?50x?$CF08X?0?5subtype?5@ 100156a8   LIBCMTD:dbgheap.obj
 0002:000006dc       ??_C@_06MBCE@?$HL?$CFld?$HN?5?$AA@ 100156dc   LIBCMTD:dbgheap.obj
 0002:000006e4       ??_C@_0L@BLDJ@?$CFhs?$CI?$CFd?$CJ?5?3?5?$AA@ 100156e4   LIBCMTD:dbgheap.obj
 0002:000006f0       ??_C@_0BE@FEMA@?$CDFile?5Error?$CD?$CI?$CFd?$CJ?5?3?5?$AA@ 100156f0   LIBCMTD:dbgheap.obj
 0002:00000704       ??_C@_0BE@FPPM@Dumping?5objects?5?9?$DO?6?$AA@ 10015704   LIBCMTD:dbgheap.obj
 0002:00000718       ??_C@_0BA@POLM@?5Data?3?5?$DM?$CFs?$DO?5?$CFs?6?$AA@ 10015718   LIBCMTD:dbgheap.obj
 0002:00000728       ??_C@_05JLAO@?$CF?42X?5?$AA@ 10015728   LIBCMTD:dbgheap.obj
 0002:00000730       ??_C@_0BI@KONA@Detected?5memory?5leaks?$CB?6?$AA@ 10015730   LIBCMTD:dbgheap.obj
 0002:00000748       ??_C@_0BP@LCCN@Total?5allocations?3?5?$CFld?5bytes?4?6?$AA@ 10015748   LIBCMTD:dbgheap.obj
 0002:00000768       ??_C@_0CB@COID@Largest?5number?5used?3?5?$CFld?5bytes?4?6@ 10015768   LIBCMTD:dbgheap.obj
 0002:0000078c       ??_C@_0BO@MEJD@?$CFld?5bytes?5in?5?$CFld?5?$CFhs?5Blocks?4?6?$AA@ 1001578c   LIBCMTD:dbgheap.obj
 0002:000007ac       ??_C@_0BB@BLL@Assertion?5Failed?$AA@ 100157ac   LIBCMTD:dbgrpt.obj
 0002:000007c0       ??_C@_05CKBG@Error?$AA@    100157c0   LIBCMTD:dbgrpt.obj
 0002:000007c8       ??_C@_07JCGI@Warning?$AA@  100157c8   LIBCMTD:dbgrpt.obj
 0002:000007d0       ??_C@_0M@ODEP@?$CFs?$CI?$CFd?$CJ?5?3?5?$CFs?$AA@ 100157d0   LIBCMTD:dbgrpt.obj
 0002:000007dc       ??_C@_01BJG@?6?$AA@        100157dc   LIBCMTD:dbgrpt.obj
 0002:000007e0       ??_C@_01FEHD@?$AN?$AA@     100157e0   LIBCMTD:dbgrpt.obj
 0002:000007e4       ??_C@_0BC@OIMC@Assertion?5failed?$CB?$AA@ 100157e4   LIBCMTD:dbgrpt.obj
 0002:000007f8       ??_C@_0BD@BEAK@Assertion?5failed?3?5?$AA@ 100157f8   LIBCMTD:dbgrpt.obj
 0002:0000080c       ??_C@_0CL@LCCP@_CrtDbgReport?3?5String?5too?5long?5o@ 1001580c   LIBCMTD:dbgrpt.obj
 0002:00000838       ??_C@_0DC@EMDK@Second?5Chance?5Assertion?5Failed?3?5@ 10015838   LIBCMTD:dbgrpt.obj
 0002:0000086c       ??_C@_09NJAK@wsprintfA?$AA@ 1001586c   LIBCMTD:dbgrpt.obj
 0002:00000878       ??_C@_0L@HKL@user32?4dll?$AA@ 10015878   LIBCMTD:dbgrpt.obj
 0002:00000884       ??_C@_0CD@GCMD@Microsoft?5Visual?5C?$CL?$CL?5Debug?5Libra@ 10015884   LIBCMTD:dbgrpt.obj
 0002:000008a8       ??_C@_0FD@EBDD@Debug?5?$CFs?$CB?6?6Program?3?5?$CFs?$CFs?$CFs?$CFs?$CFs?$CFs@ 100158a8   LIBCMTD:dbgrpt.obj
 0002:000008fc       ??_C@_09DCKN@?6Module?3?5?$AA@ 100158fc   LIBCMTD:dbgrpt.obj
 0002:00000908       ??_C@_07HJII@?6File?3?5?$AA@ 10015908   LIBCMTD:dbgrpt.obj
 0002:00000910       ??_C@_07LFGN@?6Line?3?5?$AA@ 10015910   LIBCMTD:dbgrpt.obj
 0002:00000918       ??_C@_02JJJH@?6?6?$AA@     10015918   LIBCMTD:dbgrpt.obj
 0002:0000091c       ??_C@_0N@NOAB@Expression?3?5?$AA@ 1001591c   LIBCMTD:dbgrpt.obj
 0002:0000092c       ??_C@_00A@?$AA@            1001592c   LIBCMTD:dbgrpt.obj
 0002:00000930       ??_C@_0HD@BHFH@?6?6For?5information?5on?5how?5your?5pr@ 10015930   LIBCMTD:dbgrpt.obj
 0002:000009a4       ??_C@_03NAME@?4?4?4?$AA@   100159a4   LIBCMTD:dbgrpt.obj
 0002:000009a8       ??_C@_0BH@NNCD@?$DMprogram?5name?5unknown?$DO?$AA@ 100159a8   LIBCMTD:dbgrpt.obj
 0002:000009c0       ??_C@_08GFHP@dbgrpt?4c?$AA@ 100159c0   LIBCMTD:dbgrpt.obj
 0002:000009cc       ??_C@_0BG@FBEA@szUserMessage?5?$CB?$DN?5NULL?$AA@ 100159cc   LIBCMTD:dbgrpt.obj
 0002:00000a2c       ??_C@_0L@ENLJ@tidtable?4c?$AA@ 10015a2c   LIBCMTD:tidtable.obj
 0002:00000a68       ??_C@_08KFDJ@ioinit?4c?$AA@ 10015a68   LIBCMTD:ioinit.obj
 0002:00000a74       ??_C@_09IGKD@stdenvp?4c?$AA@ 10015a74   LIBCMTD:stdenvp.obj
 0002:00000a80       ??_C@_09MPMN@stdargv?4c?$AA@ 10015a80   LIBCMTD:stdargv.obj
 0002:00000a8c       ??_C@_08FFKK@aw_env?4c?$AA@ 10015a8c   LIBCMTD:aw_env.obj
 0002:00000a98       ??_C@_0P@GGKG@runtime?5error?5?$AA@ 10015a98   LIBCMTD:crt0msg.obj
 0002:00000aa8       ??_C@_02PIMC@?$AN?6?$AA@   10015aa8   LIBCMTD:crt0msg.obj
 0002:00000aac       ??_C@_0O@DELO@TLOSS?5error?$AN?6?$AA@ 10015aac   LIBCMTD:crt0msg.obj
 0002:00000abc       ??_C@_0N@OMLL@SING?5error?$AN?6?$AA@ 10015abc   LIBCMTD:crt0msg.obj
 0002:00000acc       ??_C@_0P@OJAK@DOMAIN?5error?$AN?6?$AA@ 10015acc   LIBCMTD:crt0msg.obj
 0002:00000adc       ??_C@_0CF@EANP@R6028?$AN?6?9?5unable?5to?5initialize?5he@ 10015adc   LIBCMTD:crt0msg.obj
 0002:00000b04       ??_C@_0DF@ECGN@R6027?$AN?6?9?5not?5enough?5space?5for?5lo@ 10015b04   LIBCMTD:crt0msg.obj
 0002:00000b3c       ??_C@_0DF@FKAC@R6026?$AN?6?9?5not?5enough?5space?5for?5st@ 10015b3c   LIBCMTD:crt0msg.obj
 0002:00000b74       ??_C@_0CG@DPMN@R6025?$AN?6?9?5pure?5virtual?5function?5c@ 10015b74   LIBCMTD:crt0msg.obj
 0002:00000b9c       ??_C@_0DF@CKIP@R6024?$AN?6?9?5not?5enough?5space?5for?5_o@ 10015b9c   LIBCMTD:crt0msg.obj
 0002:00000bd4       ??_C@_0CJ@GGOE@R6019?$AN?6?9?5unable?5to?5open?5console?5@ 10015bd4   LIBCMTD:crt0msg.obj
 0002:00000c00       ??_C@_0CB@LBOB@R6018?$AN?6?9?5unexpected?5heap?5error?$AN?6@ 10015c00   LIBCMTD:crt0msg.obj
 0002:00000c24       ??_C@_0CN@FPEG@R6017?$AN?6?9?5unexpected?5multithread?5@ 10015c24   LIBCMTD:crt0msg.obj
 0002:00000c54       ??_C@_0CM@OBIC@R6016?$AN?6?9?5not?5enough?5space?5for?5th@ 10015c54   LIBCMTD:crt0msg.obj
 0002:00000c80       ??_C@_0CB@HPAL@?$AN?6abnormal?5program?5termination?$AN?6@ 10015c80   LIBCMTD:crt0msg.obj
 0002:00000ca4       ??_C@_0CM@JOOB@R6009?$AN?6?9?5not?5enough?5space?5for?5en@ 10015ca4   LIBCMTD:crt0msg.obj
 0002:00000cd0       ??_C@_0CK@OIBL@R6008?$AN?6?9?5not?5enough?5space?5for?5ar@ 10015cd0   LIBCMTD:crt0msg.obj
 0002:00000cfc       ??_C@_0CF@LKPB@R6002?$AN?6?9?5floating?5point?5not?5load@ 10015cfc   LIBCMTD:crt0msg.obj
 0002:00000d24       ??_C@_0CF@JPDF@Microsoft?5Visual?5C?$CL?$CL?5Runtime?5Lib@ 10015d24   LIBCMTD:crt0msg.obj
 0002:00000d4c       ??_C@_0BK@DEOK@Runtime?5Error?$CB?6?6Program?3?5?$AA@ 10015d4c   LIBCMTD:crt0msg.obj
 0002:00000d68       ??_C@_07HPAH@_file?4c?$AA@ 10015d68   LIBCMTD:_file.obj
 0002:00000d70       ??_C@_0P@LNLA@format?5?$CB?$DN?5NULL?$AA@ 10015d70   LIBCMTD:sprintf.obj
 0002:00000d80       ??_C@_09NEAG@sprintf?4c?$AA@ 10015d80   LIBCMTD:sprintf.obj
 0002:00000d8c       ??_C@_0P@OOIN@string?5?$CB?$DN?5NULL?$AA@ 10015d8c   LIBCMTD:sprintf.obj
 0002:00000d9c       ??_C@_0L@HE@vsprintf?4c?$AA@ 10015d9c   LIBCMTD:vsnprint.obj
 0002:00000da8       ??_C@_08CNMA@winsig?4c?$AA@ 10015da8   LIBCMTD:winsig.obj
 0002:00000db4       ??_C@_0BD@NJFP@GetLastActivePopup?$AA@ 10015db4   LIBCMTD:crtmbox.obj
 0002:00000dc8       ??_C@_0BA@GILI@GetActiveWindow?$AA@ 10015dc8   LIBCMTD:crtmbox.obj
 0002:00000dd8       ??_C@_0M@PKCK@MessageBoxA?$AA@ 10015dd8   LIBCMTD:crtmbox.obj
 0002:00000de4       ??_C@_0DP@IHIN@?$CI?$CCinconsistent?5IOB?5fields?$CC?0?5stre@ 10015de4   LIBCMTD:_flsbuf.obj
 0002:00000e24       ??_C@_09LGEI@_flsbuf?4c?$AA@ 10015e24   LIBCMTD:_flsbuf.obj
 0002:00000e30       ??_C@_0M@KJPK@str?5?$CB?$DN?5NULL?$AA@ 10015e30   LIBCMTD:_flsbuf.obj
 0002:00000e40       ___lookuptable             10015e40   LIBCMTD:output.obj
 0002:00000e9c       ??_C@_1O@POHA@?$AA?$CI?$AAn?$AAu?$AAl?$AAl?$AA?$CJ?$AA?$AA@ 10015e9c   LIBCMTD:output.obj
 0002:00000eac       ??_C@_06ONKE@?$CInull?$CJ?$AA@ 10015eac   LIBCMTD:output.obj
 0002:00000eb4       ??_C@_08MIHI@output?4c?$AA@ 10015eb4   LIBCMTD:output.obj
 0002:00000ec0       ??_C@_0P@PIHB@ch?5?$CB?$DN?5_T?$CI?8?20?8?$CJ?$AA@ 10015ec0   LIBCMTD:output.obj
 0002:00000ed0       ??_C@_08OKGP@aw_str?4c?$AA@ 10015ed0   LIBCMTD:aw_str.obj
 0002:00000edc       ??_C@_01A@?$AA?$AA@        10015edc   LIBCMTD:aw_str.obj
 0002:00000ee0       ??_C@_13A@?$AA?$AA?$AA?$AA@ 10015ee0   LIBCMTD:aw_str.obj
 0002:00000ee4       ??_C@_08PHBD@fclose?4c?$AA@ 10015ee4   LIBCMTD:fclose.obj
 0002:00000ef0       ??_C@_0P@FHEA@stream?5?$CB?$DN?5NULL?$AA@ 10015ef0   LIBCMTD:fclose.obj
 0002:00000f00       ??_C@_09EMDO@_getbuf?4c?$AA@ 10015f00   LIBCMTD:_getbuf.obj
 0002:00000f0c       ??_C@_0L@JIE@_freebuf?4c?$AA@ 10015f0c   LIBCMTD:_freebuf.obj
 0002:00000f18       ??_C@_09LNLM@osfinfo?4c?$AA@ 10015f18   LIBCMTD:osfinfo.obj
 0002:00000f24       ??_C@_07PCLE@LC_TIME?$AA@  10015f24   LIBCMTD:setlocal.obj
 0002:00000f2c       ??_C@_0L@NKG@LC_NUMERIC?$AA@ 10015f2c   LIBCMTD:setlocal.obj
 0002:00000f38       ??_C@_0M@CBIH@LC_MONETARY?$AA@ 10015f38   LIBCMTD:setlocal.obj
 0002:00000f44       ??_C@_08LFGE@LC_CTYPE?$AA@ 10015f44   LIBCMTD:setlocal.obj
 0002:00000f50       ??_C@_0L@CFLC@LC_COLLATE?$AA@ 10015f50   LIBCMTD:setlocal.obj
 0002:00000f5c       ??_C@_06GCPK@LC_ALL?$AA@   10015f5c   LIBCMTD:setlocal.obj
 0002:00000f64       ??_C@_01FAJB@?$DL?$AA@     10015f64   LIBCMTD:setlocal.obj
 0002:00000f68       ??_C@_02BGDO@?$DN?$DL?$AA@ 10015f68   LIBCMTD:setlocal.obj
 0002:00000f6c       ??_C@_0L@MOEE@setlocal?4c?$AA@ 10015f6c   LIBCMTD:setlocal.obj
 0002:00000f78       ??_C@_01KPOD@?$DN?$AA@     10015f78   LIBCMTD:setlocal.obj
 0002:00000f7c       ??_C@_03DBOJ@_?4?0?$AA@    10015f7c   LIBCMTD:setlocal.obj
 0002:00000f80       ??_C@_01PJCK@?4?$AA@       10015f80   LIBCMTD:setlocal.obj
 0002:00000f84       ??_C@_01NON@_?$AA@         10015f84   LIBCMTD:setlocal.obj
 0002:00000f88       ??_C@_0L@EEGJ@inittime?4c?$AA@ 10015f88   LIBCMTD:inittime.obj
 0002:00000f94       ??_C@_09IMJJ@initnum?4c?$AA@ 10015f94   LIBCMTD:initnum.obj
 0002:00000fa0       ??_C@_09KPNI@initmon?4c?$AA@ 10015fa0   LIBCMTD:initmon.obj
 0002:00000fac       ??_C@_0L@COIL@initctyp?4c?$AA@ 10015fac   LIBCMTD:initctyp.obj
 0002:00000fb8       ??_C@_0O@GLHB@united?9states?$AA@ 10015fb8   LIBCMTD:getqloc.obj
 0002:00000fc8       ??_C@_0P@IIKK@united?9kingdom?$AA@ 10015fc8   LIBCMTD:getqloc.obj
 0002:00000fd8       ??_C@_0O@ILBP@united?5states?$AA@ 10015fd8   LIBCMTD:getqloc.obj
 0002:00000fe8       ??_C@_0P@KBEK@united?5kingdom?$AA@ 10015fe8   LIBCMTD:getqloc.obj
 0002:00000ff8       ??_C@_03IGKO@twn?$AA@      10015ff8   LIBCMTD:getqloc.obj
 0002:00000ffc       ??_C@_06CMKP@turkey?$AA@   10015ffc   LIBCMTD:getqloc.obj
 0002:00001004       ??_C@_03PMGP@tur?$AA@      10016004   LIBCMTD:getqloc.obj
 0002:00001008       ??_C@_06OBJC@taiwan?$AA@   10016008   LIBCMTD:getqloc.obj
 0002:00001010       ??_C@_0M@EKGN@switzerland?$AA@ 10016010   LIBCMTD:getqloc.obj
 0002:0000101c       ??_C@_06PJFL@sweden?$AA@   1001601c   LIBCMTD:getqloc.obj
 0002:00001024       ??_C@_03JDMO@swe?$AA@      10016024   LIBCMTD:getqloc.obj
 0002:00001028       ??_C@_03COKO@svk?$AA@      10016028   LIBCMTD:getqloc.obj
 0002:0000102c       ??_C@_05FBKI@spain?$AA@    1001602c   LIBCMTD:getqloc.obj
 0002:00001034       ??_C@_0M@BDFM@south?9korea?$AA@ 10016034   LIBCMTD:getqloc.obj
 0002:00001040       ??_C@_0M@HNHN@south?5korea?$AA@ 10016040   LIBCMTD:getqloc.obj
 0002:0000104c       ??_C@_03FANM@sgp?$AA@      1001604c   LIBCMTD:getqloc.obj
 0002:00001050       ??_C@_09EOGO@singapore?$AA@ 10016050   LIBCMTD:getqloc.obj
 0002:0000105c       ??_C@_06NHNE@russia?$AA@   1001605c   LIBCMTD:getqloc.obj
 0002:00001064       ??_C@_03CKBC@prt?$AA@      10016064   LIBCMTD:getqloc.obj
 0002:00001068       ??_C@_08EJOH@pr?9china?$AA@ 10016068   LIBCMTD:getqloc.obj
 0002:00001074       ??_C@_08CHMG@pr?5china?$AA@ 10016074   LIBCMTD:getqloc.obj
 0002:00001080       ??_C@_08GGAN@portugal?$AA@ 10016080   LIBCMTD:getqloc.obj
 0002:0000108c       ??_C@_06NOHH@poland?$AA@   1001608c   LIBCMTD:getqloc.obj
 0002:00001094       ??_C@_03EECH@pol?$AA@      10016094   LIBCMTD:getqloc.obj
 0002:00001098       ??_C@_03DPCG@nzl?$AA@      10016098   LIBCMTD:getqloc.obj
 0002:0000109c       ??_C@_02OCJK@nz?$AA@       1001609c   LIBCMTD:getqloc.obj
 0002:000010a0       ??_C@_06BAPG@norway?$AA@   100160a0   LIBCMTD:getqloc.obj
 0002:000010a8       ??_C@_0M@MMKA@new?9zealand?$AA@ 100160a8   LIBCMTD:getqloc.obj
 0002:000010b4       ??_C@_0M@OFEA@new?5zealand?$AA@ 100160b4   LIBCMTD:getqloc.obj
 0002:000010c0       ??_C@_0M@POGE@netherlands?$AA@ 100160c0   LIBCMTD:getqloc.obj
 0002:000010cc       ??_C@_06KJLN@mexico?$AA@   100160cc   LIBCMTD:getqloc.obj
 0002:000010d4       ??_C@_03HEJJ@mex?$AA@      100160d4   LIBCMTD:getqloc.obj
 0002:000010d8       ??_C@_05OOCK@korea?$AA@    100160d8   LIBCMTD:getqloc.obj
 0002:000010e0       ??_C@_05EEKJ@japan?$AA@    100160e0   LIBCMTD:getqloc.obj
 0002:000010e8       ??_C@_05DHEA@italy?$AA@    100160e8   LIBCMTD:getqloc.obj
 0002:000010f0       ??_C@_03DEBD@irl?$AA@      100160f0   LIBCMTD:getqloc.obj
 0002:000010f4       ??_C@_07JJLD@ireland?$AA@  100160f4   LIBCMTD:getqloc.obj
 0002:000010fc       ??_C@_07FGBB@iceland?$AA@  100160fc   LIBCMTD:getqloc.obj
 0002:00001104       ??_C@_07IDDB@hungary?$AA@  10016104   LIBCMTD:getqloc.obj
 0002:0000110c       ??_C@_09MGEH@hong?9kong?$AA@ 1001610c   LIBCMTD:getqloc.obj
 0002:00001118       ??_C@_09OHNN@hong?5kong?$AA@ 10016118   LIBCMTD:getqloc.obj
 0002:00001124       ??_C@_07CCAK@holland?$AA@  10016124   LIBCMTD:getqloc.obj
 0002:0000112c       ??_C@_03EFD@hkg?$AA@       1001612c   LIBCMTD:getqloc.obj
 0002:00001130       ??_C@_06FLIB@greece?$AA@   10016130   LIBCMTD:getqloc.obj
 0002:00001138       ??_C@_0O@MEPL@great?5britain?$AA@ 10016138   LIBCMTD:getqloc.obj
 0002:00001148       ??_C@_03EJIM@grc?$AA@      10016148   LIBCMTD:getqloc.obj
 0002:0000114c       ??_C@_07CPP@germany?$AA@   1001614c   LIBCMTD:getqloc.obj
 0002:00001154       ??_C@_03CAMC@gbr?$AA@      10016154   LIBCMTD:getqloc.obj
 0002:00001158       ??_C@_06DNOH@france?$AA@   10016158   LIBCMTD:getqloc.obj
 0002:00001160       ??_C@_07IMFA@finland?$AA@  10016160   LIBCMTD:getqloc.obj
 0002:00001168       ??_C@_07LGIB@england?$AA@  10016168   LIBCMTD:getqloc.obj
 0002:00001170       ??_C@_03GOFI@dnk?$AA@      10016170   LIBCMTD:getqloc.obj
 0002:00001174       ??_C@_07ILKC@denmark?$AA@  10016174   LIBCMTD:getqloc.obj
 0002:0000117c       ??_C@_03ELPA@cze?$AA@      1001617c   LIBCMTD:getqloc.obj
 0002:00001180       ??_C@_03KHAN@chn?$AA@      10016180   LIBCMTD:getqloc.obj
 0002:00001184       ??_C@_05NMPB@china?$AA@    10016184   LIBCMTD:getqloc.obj
 0002:0000118c       ??_C@_03MAM@che?$AA@       1001618c   LIBCMTD:getqloc.obj
 0002:00001190       ??_C@_06CJAO@canada?$AA@   10016190   LIBCMTD:getqloc.obj
 0002:00001198       ??_C@_03EPD@can?$AA@       10016198   LIBCMTD:getqloc.obj
 0002:0000119c       ??_C@_07GN@britain?$AA@    1001619c   LIBCMTD:getqloc.obj
 0002:000011a4       ??_C@_06GEHJ@brazil?$AA@   100161a4   LIBCMTD:getqloc.obj
 0002:000011ac       ??_C@_03GOO@bra?$AA@       100161ac   LIBCMTD:getqloc.obj
 0002:000011b0       ??_C@_07ECDD@belgium?$AA@  100161b0   LIBCMTD:getqloc.obj
 0002:000011b8       ??_C@_03FJGB@bel?$AA@      100161b8   LIBCMTD:getqloc.obj
 0002:000011bc       ??_C@_03DIDL@aut?$AA@      100161bc   LIBCMTD:getqloc.obj
 0002:000011c0       ??_C@_07OIK@austria?$AA@   100161c0   LIBCMTD:getqloc.obj
 0002:000011c8       ??_C@_09MKKB@australia?$AA@ 100161c8   LIBCMTD:getqloc.obj
 0002:000011d4       ??_C@_03GNNO@aus?$AA@      100161d4   LIBCMTD:getqloc.obj
 0002:000011d8       ??_C@_07DLAK@america?$AA@  100161d8   LIBCMTD:getqloc.obj
 0002:000011e0       ??_C@_03IPEP@usa?$AA@      100161e0   LIBCMTD:getqloc.obj
 0002:000011e4       ??_C@_02PILH@us?$AA@       100161e4   LIBCMTD:getqloc.obj
 0002:000011e8       ??_C@_02FHP@uk?$AA@        100161e8   LIBCMTD:getqloc.obj
 0002:000011ec       ??_C@_07BNFK@turkish?$AA@  100161ec   LIBCMTD:getqloc.obj
 0002:000011f4       ??_C@_03MKGF@trk?$AA@      100161f4   LIBCMTD:getqloc.obj
 0002:000011f8       ??_C@_05DEAI@swiss?$AA@    100161f8   LIBCMTD:getqloc.obj
 0002:00001200       ??_C@_07ENHD@swedish?$AA@  10016200   LIBCMTD:getqloc.obj
 0002:00001208       ??_C@_03IFGE@sve?$AA@      10016208   LIBCMTD:getqloc.obj
 0002:0000120c       ??_C@_0P@NJBN@spanish?9modern?$AA@ 1001620c   LIBCMTD:getqloc.obj
 0002:0000121c       ??_C@_0BA@NHDN@spanish?9mexican?$AA@ 1001621c   LIBCMTD:getqloc.obj
 0002:0000122c       ??_C@_07EFLC@spanish?$AA@  1001622c   LIBCMTD:getqloc.obj
 0002:00001234       ??_C@_06KFFJ@slovak?$AA@   10016234   LIBCMTD:getqloc.obj
 0002:0000123c       ??_C@_03EBAN@sky?$AA@      1001623c   LIBCMTD:getqloc.obj
 0002:00001240       ??_C@_07JNDN@russian?$AA@  10016240   LIBCMTD:getqloc.obj
 0002:00001248       ??_C@_03LKIP@rus?$AA@      10016248   LIBCMTD:getqloc.obj
 0002:0000124c       ??_C@_03LCE@ptg?$AA@       1001624c   LIBCMTD:getqloc.obj
 0002:00001250       ??_C@_03LOP@ptb?$AA@       10016250   LIBCMTD:getqloc.obj
 0002:00001254       ??_C@_0BF@KMMM@portuguese?9brazilian?$AA@ 10016254   LIBCMTD:getqloc.obj
 0002:0000126c       ??_C@_0L@HNPF@portuguese?$AA@ 1001626c   LIBCMTD:getqloc.obj
 0002:00001278       ??_C@_06CDNL@polish?$AA@   10016278   LIBCMTD:getqloc.obj
 0002:00001280       ??_C@_03CKDN@plk?$AA@      10016280   LIBCMTD:getqloc.obj
 0002:00001284       ??_C@_0BC@BAAE@norwegian?9nynorsk?$AA@ 10016284   LIBCMTD:getqloc.obj
 0002:00001298       ??_C@_0BB@PBHK@norwegian?9bokmal?$AA@ 10016298   LIBCMTD:getqloc.obj
 0002:000012ac       ??_C@_09EHKL@norwegian?$AA@ 100162ac   LIBCMTD:getqloc.obj
 0002:000012b8       ??_C@_03BLDF@nor?$AA@      100162b8   LIBCMTD:getqloc.obj
 0002:000012bc       ??_C@_03EMKB@non?$AA@      100162bc   LIBCMTD:getqloc.obj
 0002:000012c0       ??_C@_03HGMI@nld?$AA@      100162c0   LIBCMTD:getqloc.obj
 0002:000012c4       ??_C@_03IJLK@nlb?$AA@      100162c4   LIBCMTD:getqloc.obj
 0002:000012c8       ??_C@_06KKAE@korean?$AA@   100162c8   LIBCMTD:getqloc.obj
 0002:000012d0       ??_C@_03BHJ@kor?$AA@       100162d0   LIBCMTD:getqloc.obj
 0002:000012d4       ??_C@_03LKFD@jpn?$AA@      100162d4   LIBCMTD:getqloc.obj
 0002:000012d8       ??_C@_08KCAB@japanese?$AA@ 100162d8   LIBCMTD:getqloc.obj
 0002:000012e4       ??_C@_03OLMB@its?$AA@      100162e4   LIBCMTD:getqloc.obj
 0002:000012e8       ??_C@_0O@BEAN@italian?9swiss?$AA@ 100162e8   LIBCMTD:getqloc.obj
 0002:000012f8       ??_C@_07CBME@italian?$AA@  100162f8   LIBCMTD:getqloc.obj
 0002:00001300       ??_C@_03BHJP@ita?$AA@      10016300   LIBCMTD:getqloc.obj
 0002:00001304       ??_C@_03CCLJ@isl?$AA@      10016304   LIBCMTD:getqloc.obj
 0002:00001308       ??_C@_0O@OIFK@irish?9english?$AA@ 10016308   LIBCMTD:getqloc.obj
 0002:00001318       ??_C@_09OEEF@icelandic?$AA@ 10016318   LIBCMTD:getqloc.obj
 0002:00001324       ??_C@_09IBNG@hungarian?$AA@ 10016324   LIBCMTD:getqloc.obj
 0002:00001330       ??_C@_03FCHO@hun?$AA@      10016330   LIBCMTD:getqloc.obj
 0002:00001334       ??_C@_05DOKD@greek?$AA@    10016334   LIBCMTD:getqloc.obj
 0002:0000133c       ??_C@_0N@NBPL@german?9swiss?$AA@ 1001633c   LIBCMTD:getqloc.obj
 0002:0000134c       ??_C@_0BA@MKDC@german?9austrian?$AA@ 1001634c   LIBCMTD:getqloc.obj
 0002:0000135c       ??_C@_06IAFA@german?$AA@   1001635c   LIBCMTD:getqloc.obj
 0002:00001364       ??_C@_03LCOK@frs?$AA@      10016364   LIBCMTD:getqloc.obj
 0002:00001368       ??_C@_0N@ODNB@french?9swiss?$AA@ 10016368   LIBCMTD:getqloc.obj
 0002:00001378       ??_C@_0BA@NABK@french?9canadian?$AA@ 10016378   LIBCMTD:getqloc.obj
 0002:00001388       ??_C@_0P@CJNO@french?9belgian?$AA@ 10016388   LIBCMTD:getqloc.obj
 0002:00001398       ??_C@_06PMNM@french?$AA@   10016398   LIBCMTD:getqloc.obj
 0002:000013a0       ??_C@_03BLJK@frc?$AA@      100163a0   LIBCMTD:getqloc.obj
 0002:000013a4       ??_C@_03LBAN@frb?$AA@      100163a4   LIBCMTD:getqloc.obj
 0002:000013a8       ??_C@_03EOLE@fra?$AA@      100163a8   LIBCMTD:getqloc.obj
 0002:000013ac       ??_C@_07DLFI@finnish?$AA@  100163ac   LIBCMTD:getqloc.obj
 0002:000013b4       ??_C@_03KLOL@fin?$AA@      100163b4   LIBCMTD:getqloc.obj
 0002:000013b8       ??_C@_03KNMC@esp?$AA@      100163b8   LIBCMTD:getqloc.obj
 0002:000013bc       ??_C@_03KPHI@esn?$AA@      100163bc   LIBCMTD:getqloc.obj
 0002:000013c0       ??_C@_03FAMB@esm?$AA@      100163c0   LIBCMTD:getqloc.obj
 0002:000013c4       ??_C@_03DPKJ@enz?$AA@      100163c4   LIBCMTD:getqloc.obj
 0002:000013c8       ??_C@_03DOPE@enu?$AA@      100163c8   LIBCMTD:getqloc.obj
 0002:000013cc       ??_C@_03GJGA@eni?$AA@      100163cc   LIBCMTD:getqloc.obj
 0002:000013d0       ??_C@_0M@LJOL@english?9usa?$AA@ 100163d0   LIBCMTD:getqloc.obj
 0002:000013dc       ??_C@_0L@FMNC@english?9us?$AA@ 100163dc   LIBCMTD:getqloc.obj
 0002:000013e8       ??_C@_0L@KBBK@english?9uk?$AA@ 100163e8   LIBCMTD:getqloc.obj
 0002:000013f4       ??_C@_0L@EGPP@english?9nz?$AA@ 100163f4   LIBCMTD:getqloc.obj
 0002:00001400       ??_C@_0M@PMJI@english?9ire?$AA@ 10016400   LIBCMTD:getqloc.obj
 0002:0000140c       ??_C@_0M@DCFH@english?9can?$AA@ 1001640c   LIBCMTD:getqloc.obj
 0002:00001418       ??_C@_0M@FLHK@english?9aus?$AA@ 10016418   LIBCMTD:getqloc.obj
 0002:00001424       ??_C@_0BB@HNCK@english?9american?$AA@ 10016424   LIBCMTD:getqloc.obj
 0002:00001438       ??_C@_07ELCN@english?$AA@  10016438   LIBCMTD:getqloc.obj
 0002:00001440       ??_C@_03MCKK@eng?$AA@      10016440   LIBCMTD:getqloc.obj
 0002:00001444       ??_C@_03GIPG@enc?$AA@      10016444   LIBCMTD:getqloc.obj
 0002:00001448       ??_C@_03DNNI@ena?$AA@      10016448   LIBCMTD:getqloc.obj
 0002:0000144c       ??_C@_03EEPO@ell?$AA@      1001644c   LIBCMTD:getqloc.obj
 0002:00001450       ??_C@_0O@PAMI@dutch?9belgian?$AA@ 10016450   LIBCMTD:getqloc.obj
 0002:00001460       ??_C@_05NPEI@dutch?$AA@    10016460   LIBCMTD:getqloc.obj
 0002:00001468       ??_C@_03OCEJ@deu?$AA@      10016468   LIBCMTD:getqloc.obj
 0002:0000146c       ??_C@_03BNDL@des?$AA@      1001646c   LIBCMTD:getqloc.obj
 0002:00001470       ??_C@_03OBGF@dea?$AA@      10016470   LIBCMTD:getqloc.obj
 0002:00001474       ??_C@_06KEAI@danish?$AA@   10016474   LIBCMTD:getqloc.obj
 0002:0000147c       ??_C@_03LKJC@dan?$AA@      1001647c   LIBCMTD:getqloc.obj
 0002:00001480       ??_C@_05BMOA@czech?$AA@    10016480   LIBCMTD:getqloc.obj
 0002:00001488       ??_C@_03LPJK@csy?$AA@      10016488   LIBCMTD:getqloc.obj
 0002:0000148c       ??_C@_03POL@cht?$AA@       1001648c   LIBCMTD:getqloc.obj
 0002:00001490       ??_C@_03FKAO@chs?$AA@      10016490   LIBCMTD:getqloc.obj
 0002:00001494       ??_C@_0BE@FPEJ@chinese?9traditional?$AA@ 10016494   LIBCMTD:getqloc.obj
 0002:000014a8       ??_C@_0BC@CHFL@chinese?9singapore?$AA@ 100164a8   LIBCMTD:getqloc.obj
 0002:000014bc       ??_C@_0BD@DCMH@chinese?9simplified?$AA@ 100164bc   LIBCMTD:getqloc.obj
 0002:000014d0       ??_C@_0BB@JMOE@chinese?9hongkong?$AA@ 100164d0   LIBCMTD:getqloc.obj
 0002:000014e4       ??_C@_07NGFN@chinese?$AA@  100164e4   LIBCMTD:getqloc.obj
 0002:000014ec       ??_C@_03PCOI@chi?$AA@      100164ec   LIBCMTD:getqloc.obj
 0002:000014f0       ??_C@_03FIHP@chh?$AA@      100164f0   LIBCMTD:getqloc.obj
 0002:000014f4       ??_C@_08HFLO@canadian?$AA@ 100164f4   LIBCMTD:getqloc.obj
 0002:00001500       ??_C@_07INIJ@belgian?$AA@  10016500   LIBCMTD:getqloc.obj
 0002:00001508       ??_C@_0L@LCCA@australian?$AA@ 10016508   LIBCMTD:getqloc.obj
 0002:00001514       ??_C@_0BB@BJIO@american?9english?$AA@ 10016514   LIBCMTD:getqloc.obj
 0002:00001528       ??_C@_0BB@DAGO@american?5english?$AA@ 10016528   LIBCMTD:getqloc.obj
 0002:0000153c       ??_C@_08HENB@american?$AA@ 1001653c   LIBCMTD:getqloc.obj
 0002:00001548       ??_C@_03DGJE@OCP?$AA@      10016548   LIBCMTD:getqloc.obj
 0002:0000154c       ??_C@_03EKFG@ACP?$AA@      1001654c   LIBCMTD:getqloc.obj
 0002:00001550       ??_C@_07CJME@H?3mm?3ss?$AA@ 10016550   LIBCMTD:strftime.obj
 0002:00001558       ??_C@_0BE@MHI@dddd?0?5MMMM?5dd?0?5yyyy?$AA@ 10016558   LIBCMTD:strftime.obj
 0002:0000156c       ??_C@_06HCAD@M?1d?1yy?$AA@ 1001656c   LIBCMTD:strftime.obj
 0002:00001574       ??_C@_02DBLP@PM?$AA@       10016574   LIBCMTD:strftime.obj
 0002:00001578       ??_C@_02ENLM@AM?$AA@       10016578   LIBCMTD:strftime.obj
 0002:0000157c       ??_C@_08LIDF@December?$AA@ 1001657c   LIBCMTD:strftime.obj
 0002:00001588       ??_C@_08NJLI@November?$AA@ 10016588   LIBCMTD:strftime.obj
 0002:00001594       ??_C@_07IAMM@October?$AA@  10016594   LIBCMTD:strftime.obj
 0002:0000159c       ??_C@_09MKGD@September?$AA@ 1001659c   LIBCMTD:strftime.obj
 0002:000015a8       ??_C@_06PADP@August?$AA@   100165a8   LIBCMTD:strftime.obj
 0002:000015b0       ??_C@_04PIJO@July?$AA@     100165b0   LIBCMTD:strftime.obj
 0002:000015b8       ??_C@_04ICFP@June?$AA@     100165b8   LIBCMTD:strftime.obj
 0002:000015c0       ??_C@_05JFGC@April?$AA@    100165c0   LIBCMTD:strftime.obj
 0002:000015c8       ??_C@_05FGPD@March?$AA@    100165c8   LIBCMTD:strftime.obj
 0002:000015d0       ??_C@_08PGBA@February?$AA@ 100165d0   LIBCMTD:strftime.obj
 0002:000015dc       ??_C@_07BPKJ@January?$AA@  100165dc   LIBCMTD:strftime.obj
 0002:000015e4       ??_C@_03PGJO@Dec?$AA@      100165e4   LIBCMTD:strftime.obj
 0002:000015e8       ??_C@_03PDLM@Nov?$AA@      100165e8   LIBCMTD:strftime.obj
 0002:000015ec       ??_C@_03BLHK@Oct?$AA@      100165ec   LIBCMTD:strftime.obj
 0002:000015f0       ??_C@_03DPFM@Sep?$AA@      100165f0   LIBCMTD:strftime.obj
 0002:000015f4       ??_C@_03CMCH@Aug?$AA@      100165f4   LIBCMTD:strftime.obj
 0002:000015f8       ??_C@_03OBKI@Jul?$AA@      100165f8   LIBCMTD:strftime.obj
 0002:000015fc       ??_C@_03LEIG@Jun?$AA@      100165fc   LIBCMTD:strftime.obj
 0002:00001600       ??_C@_03MGHB@May?$AA@      10016600   LIBCMTD:strftime.obj
 0002:00001604       ??_C@_03MJJM@Apr?$AA@      10016604   LIBCMTD:strftime.obj
 0002:00001608       ??_C@_03GNHA@Mar?$AA@      10016608   LIBCMTD:strftime.obj
 0002:0000160c       ??_C@_03PICE@Feb?$AA@      1001660c   LIBCMTD:strftime.obj
 0002:00001610       ??_C@_03IEIF@Jan?$AA@      10016610   LIBCMTD:strftime.obj
 0002:00001614       ??_C@_08FAKH@Saturday?$AA@ 10016614   LIBCMTD:strftime.obj
 0002:00001620       ??_C@_06ONCK@Friday?$AA@   10016620   LIBCMTD:strftime.obj
 0002:00001628       ??_C@_08CCFO@Thursday?$AA@ 10016628   LIBCMTD:strftime.obj
 0002:00001634       ??_C@_09PBIN@Wednesday?$AA@ 10016634   LIBCMTD:strftime.obj
 0002:00001640       ??_C@_07BMBC@Tuesday?$AA@  10016640   LIBCMTD:strftime.obj
 0002:00001648       ??_C@_06CHLK@Monday?$AA@   10016648   LIBCMTD:strftime.obj
 0002:00001650       ??_C@_06OOEM@Sunday?$AA@   10016650   LIBCMTD:strftime.obj
 0002:00001658       ??_C@_03MPKK@Sat?$AA@      10016658   LIBCMTD:strftime.obj
 0002:0000165c       ??_C@_03FINJ@Fri?$AA@      1001665c   LIBCMTD:strftime.obj
 0002:00001660       ??_C@_03HIKC@Thu?$AA@      10016660   LIBCMTD:strftime.obj
 0002:00001664       ??_C@_03HECK@Wed?$AA@      10016664   LIBCMTD:strftime.obj
 0002:00001668       ??_C@_03ECCP@Tue?$AA@      10016668   LIBCMTD:strftime.obj
 0002:0000166c       ??_C@_03PIEP@Mon?$AA@      1001666c   LIBCMTD:strftime.obj
 0002:00001670       ??_C@_03FHEP@Sun?$AA@      10016670   LIBCMTD:strftime.obj
 0002:00001674       ??_C@_03MKGK@a?1p?$AA@     10016674   LIBCMTD:strftime.obj
 0002:00001678       ??_C@_05BDJK@am?1pm?$AA@   10016678   LIBCMTD:strftime.obj
 0002:00001680       ??_C@_0L@HKCB@inithelp?4c?$AA@ 10016680   LIBCMTD:inithelp.obj
 0002:0000168c       ??_C@_08OKNB@aw_loc?4c?$AA@ 1001668c   LIBCMTD:aw_loc.obj
 0002:00001698       ___dnames                  10016698   LIBCMTD:timeset.obj
 0002:000016b0       ___mnames                  100166b0   LIBCMTD:timeset.obj
 0002:000016d8       ??_C@_07DEKI@tzset?4c?$AA@ 100166d8   LIBCMTD:tzset.obj
 0002:000016e0       ??_C@_02JHIA@TZ?$AA@       100166e0   LIBCMTD:tzset.obj
 0002:000016e4       ??_C@_0L@LIHO@wcstombs?4c?$AA@ 100166e4   LIBCMTD:wcstombs.obj
 0002:000016f0       ??_C@_0N@ILLM@pwcs?5?$CB?$DN?5NULL?$AA@ 100166f0   LIBCMTD:wcstombs.obj
 0002:00001700       ??_C@_08GINJ@aw_map?4c?$AA@ 10016700   LIBCMTD:aw_map.obj
 0002:0000170c       ??_C@_0L@EJNO@wtombenv?4c?$AA@ 1001670c   LIBCMTD:wtombenv.obj
 0002:00001718       ??_C@_08BGPE@aw_cmp?4c?$AA@ 10016718   LIBCMTD:aw_cmp.obj
 0002:00001724       ??_C@_0DN@PPKB@cchCount1?$DN?$DN0?5?$CG?$CG?5cchCount2?$DN?$DN1?5?$HM?$HM?5@ 10016724   LIBCMTD:aw_cmp.obj
 0002:00001764       ??_C@_08FEIK@setenv?4c?$AA@ 10016764   LIBCMTD:setenv.obj
 0003:00000000       ___xc_a                    10017000   LIBCMTD:crt0init.obj
 0003:00000004       ___xc_z                    10017004   LIBCMTD:crt0init.obj
 0003:00000008       ___xi_a                    10017008   LIBCMTD:crt0init.obj
 0003:00000014       ___xi_z                    10017014   LIBCMTD:crt0init.obj
 0003:00000018       ___xp_a                    10017018   LIBCMTD:crt0init.obj
 0003:00000020       ___xp_z                    10017020   LIBCMTD:crt0init.obj
 0003:00000024       ___xt_a                    10017024   LIBCMTD:crt0init.obj
 0003:0000002c       ___xt_z                    1001702c   LIBCMTD:crt0init.obj
 0003:00000048       __NLG_Destination          10017048   LIBCMTD:exsup.obj
 0003:00000058       __aexit_rtn                10017058   LIBCMTD:dllcrt0.obj
 0003:00000060       __locktable                10017060   LIBCMTD:mlock.obj
 0003:00000120       __crtDbgFlag               10017120   LIBCMTD:dbgheap.obj
 0003:00000128       __crtBreakAlloc            10017128   LIBCMTD:dbgheap.obj
 0003:00000150       __crtAssertBusy            10017150   LIBCMTD:dbgrpt.obj
 0003:00000158       __CrtDbgMode               10017158   LIBCMTD:dbgrpt.obj
 0003:00000168       __CrtDbgFile               10017168   LIBCMTD:dbgrpt.obj
 0003:00000190       ___tlsindex                10017190   LIBCMTD:tidtable.obj
 0003:00000194       ?__pInconsistency@@3P6AXXZA 10017194   LIBCMTD:hooks.obj
 0003:00000198       ___badioinfo               10017198   LIBCMTD:ioinit.obj
 0003:000002b8       __amblksiz                 100172b8   LIBCMTD:heapinit.obj
 0003:00000350       __iob                      10017350   LIBCMTD:_file.obj
 0003:000005d0       __pfnAllocHook             100175d0   LIBCMTD:dbghook.obj
 0003:000005d8       ___small_block_heap        100175d8   LIBCMTD:sbheap.obj
 0003:000025fc       ___sbh_threshold           100195fc   LIBCMTD:sbheap.obj
 0003:00002600       __pctype                   10019600   LIBCMTD:ctype.obj
 0003:00002604       __pwctype                  10019604   LIBCMTD:ctype.obj
 0003:00002608       __ctype                    10019608   LIBCMTD:ctype.obj
 0003:0000280c       ___mb_cur_max              1001980c   LIBCMTD:nlsdata1.obj
 0003:00002810       ___decimal_point           10019810   LIBCMTD:nlsdata1.obj
 0003:00002814       ___decimal_point_length    10019814   LIBCMTD:nlsdata1.obj
 0003:00002820       __XcptActTab               10019820   LIBCMTD:winxfltr.obj
 0003:00002898       __First_FPE_Indx           10019898   LIBCMTD:winxfltr.obj
 0003:0000289c       __Num_FPE                  1001989c   LIBCMTD:winxfltr.obj
 0003:000028a0       __XcptActTabSize           100198a0   LIBCMTD:winxfltr.obj
 0003:000028a4       __XcptActTabCount          100198a4   LIBCMTD:winxfltr.obj
 0003:00002a18       ___nullstring              10019a18   LIBCMTD:output.obj
 0003:00002a1c       ___wnullstring             10019a1c   LIBCMTD:output.obj
 0003:00002a20       __cfltcvt_tab              10019a20   LIBCMTD:cmiscdat.obj
 0003:00002ba0       ___rg_lang_rec             10019ba0   LIBCMTD:getqloc.obj
 0003:00002eb8       ___rg_ctry_rec             10019eb8   LIBCMTD:getqloc.obj
 0003:00003170       ___rgrgwlang               1001a170   LIBCMTD:getqloc.obj
 0003:00003398       ___lc_time_c               1001a398   LIBCMTD:strftime.obj
 0003:00003444       ___lc_time_curr            1001a444   LIBCMTD:strftime.obj
 0003:00003448       ___lconv_static_decimal    1001a448   LIBCMTD:lconv.obj
 0003:00003450       ___lconv_c                 1001a450   LIBCMTD:lconv.obj
 0003:00003480       ___lconv                   1001a480   LIBCMTD:lconv.obj
 0003:00003490       __timezone                 1001a490   LIBCMTD:timeset.obj
 0003:00003494       __daylight                 1001a494   LIBCMTD:timeset.obj
 0003:00003498       __dstbias                  1001a498   LIBCMTD:timeset.obj
 0003:00003520       __tzname                   1001a520   LIBCMTD:timeset.obj
 0003:00003550       __lpdays                   1001a550   LIBCMTD:days.obj
 0003:00003588       __days                     1001a588   LIBCMTD:days.obj
 0003:000035c4       __aenvptr                  1001a5c4   LIBCMTD:dllcrt0.obj
 0003:000035c8       __wenvptr                  1001a5c8   LIBCMTD:dllcrt0.obj
 0003:000035cc       ___error_mode              1001a5cc   LIBCMTD:dllcrt0.obj
 0003:000035d0       ___app_type                1001a5d0   LIBCMTD:dllcrt0.obj
 0003:00003650       __umaskval                 1001a650   LIBCMTD:crt0dat.obj
 0003:00003654       __osver                    1001a654   LIBCMTD:crt0dat.obj
 0003:00003658       __winver                   1001a658   LIBCMTD:crt0dat.obj
 0003:0000365c       __winmajor                 1001a65c   LIBCMTD:crt0dat.obj
 0003:00003660       __winminor                 1001a660   LIBCMTD:crt0dat.obj
 0003:00003664       ___argc                    1001a664   LIBCMTD:crt0dat.obj
 0003:00003668       ___argv                    1001a668   LIBCMTD:crt0dat.obj
 0003:0000366c       ___wargv                   1001a66c   LIBCMTD:crt0dat.obj
 0003:00003670       __environ                  1001a670   LIBCMTD:crt0dat.obj
 0003:00003674       ___initenv                 1001a674   LIBCMTD:crt0dat.obj
 0003:00003678       __wenviron                 1001a678   LIBCMTD:crt0dat.obj
 0003:0000367c       ___winitenv                1001a67c   LIBCMTD:crt0dat.obj
 0003:00003680       __pgmptr                   1001a680   LIBCMTD:crt0dat.obj
 0003:00003684       __wpgmptr                  1001a684   LIBCMTD:crt0dat.obj
 0003:00003688       __exitflag                 1001a688   LIBCMTD:crt0dat.obj
 0003:0000368c       __C_Termination_Done       1001a68c   LIBCMTD:crt0dat.obj
 0003:00003690       __C_Exit_Done              1001a690   LIBCMTD:crt0dat.obj
 0003:000037a0       __mbctype                  1001a7a0   LIBCMTD:mbctype.obj
 0003:000038a4       ___mbcodepage              1001a8a4   LIBCMTD:mbctype.obj
 0003:000038a8       ___mblcid                  1001a8a8   LIBCMTD:mbctype.obj
 0003:000038b0       ___mbulinfo                1001a8b0   LIBCMTD:mbctype.obj
 0003:000038c8       __adbgmsg                  1001a8c8   LIBCMTD:crt0msg.obj
 0003:000038cc       __cflush                   1001a8cc   LIBCMTD:_file.obj
 0003:000038d0       __newmode                  1001a8d0   LIBCMTD:_newmode.obj
 0003:000038d4       ?_pnhHeap@@3P6AHI@ZA       1001a8d4   LIBCMTD:handler.obj
 0003:00003900       ___lc_handle               1001a900   LIBCMTD:nlsdata2.obj
 0003:00003918       ___lc_codepage             1001a918   LIBCMTD:nlsdata2.obj
 0003:00003930       ___lc_time_intl            1001a930   LIBCMTD:inittime.obj
 0003:00003950       ___lc_id                   1001a950   LIBCMTD:nlsdata3.obj
 0003:00003974       __alternate_form           1001a974   LIBCMTD:strftime.obj
 0003:00003978       __no_lead_zeros            1001a978   LIBCMTD:strftime.obj
 0003:00003988       ___lconv_static_null       1001a988   LIBCMTD:lconv.obj
 0003:00003a64       ___setlc_active            1001aa64   <common>
 0003:00003a68       ___unguarded_readlc_active 1001aa68   <common>
 0003:00003a6c       ___piob                    1001aa6c   <common>
 0003:00003a80       __bufin                    1001aa80   <common>
 0003:00004a80       __nstream                  1001ba80   <common>
 0003:00004a84       __crtheap                  1001ba84   <common>
 0003:00004aa0       ___pioinfo                 1001baa0   <common>
 0003:00004ba0       __nhandle                  1001bba0   <common>
 0003:00004ba4       ___onexitend               1001bba4   <common>
 0003:00004ba8       ___onexitbegin             1001bba8   <common>
 0003:00004bac       __FPinit                   1001bbac   <common>
 0003:00004bb0       __pfnReportHook            1001bbb0   <common>
 0003:00004bb4       __pfnDumpClient            1001bbb4   <common>
 0003:00004bb8       __acmdln                   1001bbb8   <common>
 0003:00004bbc       __pRawDllMain              1001bbbc   <common>
 0004:00000000       __IMPORT_DESCRIPTOR_KERNEL32 1001c000   kernel32:KERNEL32.dll
 0004:00000014       __NULL_IMPORT_DESCRIPTOR   1001c014   kernel32:KERNEL32.dll
 0004:00000158       __imp__GetStartupInfoA@4   1001c158   kernel32:KERNEL32.dll
 0004:0000015c       __imp__CloseHandle@4       1001c15c   kernel32:KERNEL32.dll
 0004:00000160       __imp__DeviceIoControl@32  1001c160   kernel32:KERNEL32.dll
 0004:00000164       __imp__RtlUnwind@16        1001c164   kernel32:KERNEL32.dll
 0004:00000168       __imp__GetCommandLineA@0   1001c168   kernel32:KERNEL32.dll
 0004:0000016c       __imp__GetProcAddress@8    1001c16c   kernel32:KERNEL32.dll
 0004:00000170       __imp__GetModuleHandleA@4  1001c170   kernel32:KERNEL32.dll
 0004:00000174       __imp__GetVersion@0        1001c174   kernel32:KERNEL32.dll
 0004:00000178       __imp__InitializeCriticalSection@4 1001c178   kernel32:KERNEL32.dll
 0004:0000017c       __imp__DeleteCriticalSection@4 1001c17c   kernel32:KERNEL32.dll
 0004:00000180       __imp__EnterCriticalSection@4 1001c180   kernel32:KERNEL32.dll
 0004:00000184       __imp__LeaveCriticalSection@4 1001c184   kernel32:KERNEL32.dll
 0004:00000188       __imp__ExitProcess@4       1001c188   kernel32:KERNEL32.dll
 0004:0000018c       __imp__FatalAppExitA@8     1001c18c   kernel32:KERNEL32.dll
 0004:00000190       __imp__IsBadWritePtr@8     1001c190   kernel32:KERNEL32.dll
 0004:00000194       __imp__IsBadReadPtr@8      1001c194   kernel32:KERNEL32.dll
 0004:00000198       __imp__HeapValidate@12     1001c198   kernel32:KERNEL32.dll
 0004:0000019c       __imp__DebugBreak@0        1001c19c   kernel32:KERNEL32.dll
 0004:000001a0       __imp__GetStdHandle@4      1001c1a0   kernel32:KERNEL32.dll
 0004:000001a4       __imp__WriteFile@20        1001c1a4   kernel32:KERNEL32.dll
 0004:000001a8       __imp__InterlockedDecrement@4 1001c1a8   kernel32:KERNEL32.dll
 0004:000001ac       __imp__OutputDebugStringA@4 1001c1ac   kernel32:KERNEL32.dll
 0004:000001b0       __imp__LoadLibraryA@4      1001c1b0   kernel32:KERNEL32.dll
 0004:000001b4       __imp__InterlockedIncrement@4 1001c1b4   kernel32:KERNEL32.dll
 0004:000001b8       __imp__GetModuleFileNameA@12 1001c1b8   kernel32:KERNEL32.dll
 0004:000001bc       __imp__GetCurrentThreadId@0 1001c1bc   kernel32:KERNEL32.dll
 0004:000001c0       __imp__TlsSetValue@8       1001c1c0   kernel32:KERNEL32.dll
 0004:000001c4       __imp__TlsAlloc@0          1001c1c4   kernel32:KERNEL32.dll
 0004:000001c8       __imp__TlsFree@4           1001c1c8   kernel32:KERNEL32.dll
 0004:000001cc       __imp__SetLastError@4      1001c1cc   kernel32:KERNEL32.dll
 0004:000001d0       __imp__TlsGetValue@4       1001c1d0   kernel32:KERNEL32.dll
 0004:000001d4       __imp__GetLastError@0      1001c1d4   kernel32:KERNEL32.dll
 0004:000001d8       __imp__GetCurrentThread@0  1001c1d8   kernel32:KERNEL32.dll
 0004:000001dc       __imp__TerminateProcess@8  1001c1dc   kernel32:KERNEL32.dll
 0004:000001e0       __imp__GetCurrentProcess@0 1001c1e0   kernel32:KERNEL32.dll
 0004:000001e4       __imp__SetHandleCount@4    1001c1e4   kernel32:KERNEL32.dll
 0004:000001e8       __imp__GetFileType@4       1001c1e8   kernel32:KERNEL32.dll
 0004:000001ec       __imp__CreateFileA@28      1001c1ec   kernel32:KERNEL32.dll
 0004:000001f0       __imp__GetCPInfo@8         1001c1f0   kernel32:KERNEL32.dll
 0004:000001f4       __imp__GetACP@0            1001c1f4   kernel32:KERNEL32.dll
 0004:000001f8       __imp__GetOEMCP@0          1001c1f8   kernel32:KERNEL32.dll
 0004:000001fc       __imp__FreeEnvironmentStringsA@4 1001c1fc   kernel32:KERNEL32.dll
 0004:00000200       __imp__MultiByteToWideChar@24 1001c200   kernel32:KERNEL32.dll
 0004:00000204       __imp__FreeEnvironmentStringsW@4 1001c204   kernel32:KERNEL32.dll
 0004:00000208       __imp__GetEnvironmentStrings@0 1001c208   kernel32:KERNEL32.dll
 0004:0000020c       __imp__GetEnvironmentStringsW@0 1001c20c   kernel32:KERNEL32.dll
 0004:00000210       __imp__WideCharToMultiByte@32 1001c210   kernel32:KERNEL32.dll
 0004:00000214       __imp__HeapDestroy@4       1001c214   kernel32:KERNEL32.dll
 0004:00000218       __imp__HeapCreate@12       1001c218   kernel32:KERNEL32.dll
 0004:0000021c       __imp__VirtualFree@12      1001c21c   kernel32:KERNEL32.dll
 0004:00000220       __imp__HeapAlloc@12        1001c220   kernel32:KERNEL32.dll
 0004:00000224       __imp__HeapReAlloc@16      1001c224   kernel32:KERNEL32.dll
 0004:00000228       __imp__HeapFree@12         1001c228   kernel32:KERNEL32.dll
 0004:0000022c       __imp__VirtualAlloc@16     1001c22c   kernel32:KERNEL32.dll
 0004:00000230       __imp__SetConsoleCtrlHandler@8 1001c230   kernel32:KERNEL32.dll
 0004:00000234       __imp__SetUnhandledExceptionFilter@4 1001c234   kernel32:KERNEL32.dll
 0004:00000238       __imp__IsBadCodePtr@4      1001c238   kernel32:KERNEL32.dll
 0004:0000023c       __imp__UnhandledExceptionFilter@4 1001c23c   kernel32:KERNEL32.dll
 0004:00000240       __imp__GetStringTypeA@20   1001c240   kernel32:KERNEL32.dll
 0004:00000244       __imp__GetStringTypeW@16   1001c244   kernel32:KERNEL32.dll
 0004:00000248       __imp__FlushFileBuffers@4  1001c248   kernel32:KERNEL32.dll
 0004:0000024c       __imp__SetFilePointer@16   1001c24c   kernel32:KERNEL32.dll
 0004:00000250       __imp__SetStdHandle@8      1001c250   kernel32:KERNEL32.dll
 0004:00000254       __imp__Sleep@4             1001c254   kernel32:KERNEL32.dll
 0004:00000258       __imp__IsValidLocale@8     1001c258   kernel32:KERNEL32.dll
 0004:0000025c       __imp__IsValidCodePage@4   1001c25c   kernel32:KERNEL32.dll
 0004:00000260       __imp__GetUserDefaultLCID@0 1001c260   kernel32:KERNEL32.dll
 0004:00000264       __imp__GetLocaleInfoA@16   1001c264   kernel32:KERNEL32.dll
 0004:00000268       __imp__GetLocaleInfoW@16   1001c268   kernel32:KERNEL32.dll
 0004:0000026c       __imp__GetTimeZoneInformation@4 1001c26c   kernel32:KERNEL32.dll
 0004:00000270       __imp__LCMapStringA@24     1001c270   kernel32:KERNEL32.dll
 0004:00000274       __imp__LCMapStringW@24     1001c274   kernel32:KERNEL32.dll
 0004:00000278       __imp__CompareStringA@24   1001c278   kernel32:KERNEL32.dll
 0004:0000027c       __imp__CompareStringW@24   1001c27c   kernel32:KERNEL32.dll
 0004:00000280       __imp__SetEnvironmentVariableA@8 1001c280   kernel32:KERNEL32.dll
 0004:00000284       \177KERNEL32_NULL_THUNK_DATA 1001c284   kernel32:KERNEL32.dll

 entry point at        0001:00001230

 Static symbols

 0001:00012f70       _$$$00001                  10013f70 f LIBCMTD:strchr.obj
 0001:00012d10       _findenv                   10013d10 f LIBCMTD:setenv.obj
 0001:00012d90       _copy_environ              10013d90 f LIBCMTD:setenv.obj
 0001:000125c0       _wcsncnt                   100135c0 f LIBCMTD:aw_cmp.obj
 0001:000129e0       _strncnt                   100139e0 f LIBCMTD:aw_cmp.obj
 0001:00011eb0       _wcsncnt                   10012eb0 f LIBCMTD:aw_map.obj
 0001:000121d0       _strncnt                   100131d0 f LIBCMTD:aw_map.obj
 0001:00011aa0       _wcsncnt                   10012aa0 f LIBCMTD:wcstombs.obj
 0001:00010a70       __tzset_lk                 10011a70 f LIBCMTD:tzset.obj
 0001:00010e00       __isindst_lk               10011e00 f LIBCMTD:tzset.obj
 0001:00011100       _cvtdate                   10012100 f LIBCMTD:tzset.obj
 0001:000103f0       _wcstoxl                   100113f0 f LIBCMTD:wcstol.obj
 0001:0000f200       __expandtime               10010200 f LIBCMTD:strftime.obj
 0001:0000f830       __store_str                10010830 f LIBCMTD:strftime.obj
 0001:0000f880       __store_num                10010880 f LIBCMTD:strftime.obj
 0001:0000f930       __store_number             10010930 f LIBCMTD:strftime.obj
 0001:0000f9e0       __store_winword            100109e0 f LIBCMTD:strftime.obj
 0001:0000e7a0       _trans_lang_lang           1000f7a0 f LIBCMTD:getqloc.obj
 0001:0000e830       _trans_ctry_ctry           1000f830 f LIBCMTD:getqloc.obj
 0001:0000e8c0       _trans_ctry_lang           1000f8c0 f LIBCMTD:getqloc.obj
 0001:0000e940       _testSpecialCtry           1000f940 f LIBCMTD:getqloc.obj
 0001:0000e970       _match_ctry_lang           1000f970 f LIBCMTD:getqloc.obj
 0001:0000dc40       __get_lc_lconv             1000ec40 f LIBCMTD:initmon.obj
 0001:0000de50       _fix_grouping              1000ee50 f LIBCMTD:initmon.obj
 0001:0000ded0       __free_lc_lconv            1000eed0 f LIBCMTD:initmon.obj
 0001:0000da90       _fix_grouping              1000ea90 f LIBCMTD:initnum.obj
 0001:0000cd80       __get_lc_time              1000dd80 f LIBCMTD:inittime.obj
 0001:0000d310       __free_lc_time             1000e310 f LIBCMTD:inittime.obj
 0001:0000d620       _storeTimeFmt              1000e620 f LIBCMTD:inittime.obj
 0001:0000c650       __setlocale_set_cat        1000d650 f LIBCMTD:setlocal.obj
 0001:0000c7e0       __setlocale_get_all        1000d7e0 f LIBCMTD:setlocal.obj
 0001:0000ac40       _write_char                1000bc40 f LIBCMTD:output.obj
 0001:0000acc0       _write_multi_char          1000bcc0 f LIBCMTD:output.obj
 0001:0000ad00       _write_string              1000bd00 f LIBCMTD:output.obj
 0001:0000ad50       _get_int_arg               1000bd50 f LIBCMTD:output.obj
 0001:0000ad70       _get_int64_arg             1000bd70 f LIBCMTD:output.obj
 0001:0000ad90       _get_short_arg             1000bd90 f LIBCMTD:output.obj
 0001:00009a90       _flsall                    1000aa90 f LIBCMTD:fflush.obj
 0001:00009440       _xcptlookup                1000a440 f LIBCMTD:winxfltr.obj
 0001:00008760       _ctrlevent_capture@4       10009760 f LIBCMTD:winsig.obj
 0001:00008a50       _siglookup                 10009a50 f LIBCMTD:winsig.obj
 0001:00008500       _$$$00001                  10009500 f LIBCMTD:chkstk.obj
 0001:00007f10       _xtoa                      10008f10 f LIBCMTD:xtoa.obj
 0001:00008090       _x64toa@20                 10009090 f LIBCMTD:xtoa.obj
 0001:00005d10       _getSystemCP               10006d10 f LIBCMTD:mbctype.obj
 0001:00005d70       _CPtoLCID                  10006d70 f LIBCMTD:mbctype.obj
 0001:00005df0       _setSBCS                   10006df0 f LIBCMTD:mbctype.obj
 0001:000055c0       _parse_cmdline             100065c0 f LIBCMTD:stdargv.obj
 0001:00004ea0       _doexit                    10005ea0 f LIBCMTD:crt0dat.obj
 0001:00004fb0       __initterm                 10005fb0 f LIBCMTD:crt0dat.obj
 0001:00003e40       ?FindHandler@@YAXPAUEHExceptionRecord@@PAUEHRegistrationNode@@PAU_CONTEXT@@PAXPBU_s_FuncInfo@@EH1@Z 10004e40 f LIBCMTD:frame.obj
 0001:000040e0       ?FindHandlerForForeignException@@YAXPAUEHExceptionRecord@@PAUEHRegistrationNode@@PAU_CONTEXT@@PAXPBU_s_FuncInfo@@HH1@Z 100050e0 f LIBCMTD:frame.obj
 0001:00004200       ?TypeMatch@@YAHPBU_s_HandlerType@@PBU_s_CatchableType@@PBU_s_ThrowInfo@@@Z 10005200 f LIBCMTD:frame.obj
 0001:000043c0       ?FrameUnwindFilter@@YAHPAU_EXCEPTION_POINTERS@@@Z 100053c0 f LIBCMTD:frame.obj
 0001:000043f0       ?CatchIt@@YAXPAUEHExceptionRecord@@PAUEHRegistrationNode@@PAU_CONTEXT@@PAXPBU_s_FuncInfo@@PBU_s_HandlerType@@PBU_s_CatchableType@@PBU_s_TryBlockMapEntry@@H1@Z 100053f0 f LIBCMTD:frame.obj
 0001:000044b0       ?CallCatchBlock@@YAPAXPAUEHExceptionRecord@@PAUEHRegistrationNode@@PAU_CONTEXT@@PBU_s_FuncInfo@@PAXHK@Z 100054b0 f LIBCMTD:frame.obj
 0001:00004600       ?ExFilterRethrow@@YAHPAU_EXCEPTION_POINTERS@@@Z 10005600 f LIBCMTD:frame.obj
 0001:00004650       ?BuildCatchObject@@YAXPAUEHExceptionRecord@@PAUEHRegistrationNode@@PBU_s_HandlerType@@PBU_s_CatchableType@@@Z 10005650 f LIBCMTD:frame.obj
 0001:00004970       ?AdjustPointer@@YAPAXPAXABUPMD@@@Z 10005970 f LIBCMTD:frame.obj
 0001:00003a40       _CrtMessageWindow          10004a40 f LIBCMTD:dbgrpt.obj
 0001:00001b00       _realloc_help              10002b00 f LIBCMTD:dbgheap.obj
 0001:00002740       _CheckBytes                10003740 f LIBCMTD:dbgheap.obj
 0001:00003330       __printMemBlockData        10004330 f LIBCMTD:dbgheap.obj
 0001:00000f90       __unwind_handler           10001f90 f LIBCMTD:exsup.obj
 0001:00000d40       ?CatchGuardHandler@@YA?AW4_EXCEPTION_DISPOSITION@@PAUEHExceptionRecord@@PAUCatchGuardRN@@PAX2@Z 10001d40 f LIBCMTD:trnsctrl.obj
 0001:00000e50       ?TranslatorGuardHandler@@YA?AW4_EXCEPTION_DISPOSITION@@PAUEHExceptionRecord@@PAUTranslatorGuardRN@@PAX2@Z 10001e50 f LIBCMTD:trnsctrl.obj

FIXUPS: 1ad5 55 1f a 621 5 c 5 5 5 5 3d 7 f 5 5 5 15 7e 1e 1e 1d 68 9 fffffc2c
FIXUPS: 1c28 60 33 63 4f 9e 93 19 52 47 fffffc2a 26c6 31 18 45 18 f 1a
FIXUPS: 4397 69 2a 34 39 16 7c 2a 28 ffffde95 60 13 a 34 a 6a 2c 44 2c
FIXUPS: 20a4 31 8 5b 9 17 179d 16 94 2b 32 2b 39 20 49 33 22 67 47 80 1f
FIXUPS: 3cc9 15 4d 5a 11 5c 1b ec 33 49 10e 1a a1 20 31 28 4f fffff077
FIXUPS: 32a8 3b 45 2b c 41 6b 56 36 c 2b 1c 2c 1c 16 c 1f 62 51 1f 45 c
FIXUPS: 36f0 1f 93 57 8 51 2b 28 28 fffff2b2 6b 28 32 4f 18 1f 5b 66 25
FIXUPS: 2dd5 b3 19 59 5f 54 85 15 1e d 18 20 1c 10 a 24 1c 50 1d 1f 62
FIXUPS: 3242 1a9c 18 19 19 a ffffd8f2 26 28 15 18 d 1d 25 2f 1c 69 28 5f
FIXUPS: 287d 21 128 1e 1b 33 2f 51 15 1e d 35 21 1b 2cf8 14 15 14 7 17
FIXUPS: 5931 20 ffffed68 10b 2a 18 38 16 2b 14 2e 18 18 7a 63 34 47 1e
FIXUPS: 4a74 2f 15 11 1d 21 14 26 8f7 17 37 19 4e b b b 2d 18 20 24 b 37
FIXUPS: 55e3 e5 12 24 f 1f 12 1e 26 f 1c 12 21 d a 13 16 13 421 e fffffd7d
FIXUPS: 5a01 fffff36a 32 8c 41 41 10 b 11 15 31 51 ba 38 27 36 a 20 27
FIXUPS: 5133 b0 65 ce 36 12 38 4c 31 16 9e6 1d 20 1e 20 1b 77 12 13 19
FIXUPS: 5f65 31 10 fffffd28 12 2f 25 b 8 74 fffffc5a 2a 2e 37 81 2a 21
FIXUPS: 5bd2 1a 1a 1a 1a 169b 2b fffff6f9 c 18 15 7 10a 45 ff 4c 15 7 e
FIXUPS: 6e76 fffff6d2 1b 13 22 fffffe50 28 1f 29 26 17 12 1c fffffb35 13
FIXUPS: 60f3 29a fffffa70 1bbf d fffffe5e 1b fffffecf 35 18 a6 10 fffffc40
FIXUPS: 7470 77 6e 57 15 17 1d 14 13 14 1a 19 fffffce2 fffffc0a 2e 88 2f
FIXUPS: 709d 1a 16 12a 4a b25 12 27 b 2a ffffff0d 14 1d a c fffffdb9 17
FIXUPS: 7b3b 14 37 1b 40 14 59 14 a c 39 fffffd8f 14 36 14 f fffffe51 48
FIXUPS: 796f 3e 2008 ff 10 fffff962 2a 44 4b fffffd5d 2a 44 4b fffffbe9
FIXUPS: 8ef6 11b 21 4b 4a 17 a8 fffffd11 fffffe95 2a 45 4b fffff19b 236
FIXUPS: 82d1 9e a3 102 119 fffff731 2bae fffffb9a a a fffffdcd 13 fffffc1d
FIXUPS: 9ec4 11 2f 25 fffffd91 1b fffff892 43 9 82 24 27 2a 17 58 50 44
FIXUPS: 97ca 16 c4 13 28 16 1d a 2417 ffffef7d 108 10 3e 54 4d 28 fffffd06
FIXUPS: ac06 21 1f d 21 10 fffffca9 e c f 22 28 78 6e 21 68 33 40 25 f
FIXUPS: a850 5c 41 16c5 103 59 ffffeef8 34 24 cb 67 133 18 21 34 30 a8
FIXUPS: b4ea 142 ba 31 1e 2a 1b 116 25 122 1e 30 75 32 22 26 177 55 b1c
FIXUPS: c848 fffffc2a b 14 14 f 6d 1a2 b 10 3e b fffffc6b 17 2e 2d a 16
FIXUPS: c235 31 c f 4c 27 f f 27 fffffb68 5d 98 e 1186 b 18 31 3d 2f fffffa33
FIXUPS: cc57 fffffeab b 14 c f 1e 1b c 10 29 2d fffffdf1 21 13 50 5e fffffe04
FIXUPS: c8f5 fffffe8d b 14 14 f 27 11c9 2e 1b 14 19 19 11 67 27 40 2a 45
FIXUPS: dbbf 33 4a 25 2b fffff5ca fffffa5b 82 2f 83 7d 11 b8 b d6 b 65
FIXUPS: d087 66 2f 27a 51 19 2f 2d 39 21 5a 38 47 17 31 11 1a 22 10 43
FIXUPS: d69d c 47 1b 40 3e 31 4e 4e 1a 25 2a 9b 19 1b adc 11 11 11 11 11
FIXUPS: e4d0 11 11 11 11 11 11 14 14 14 14 14 14 14 14 14 14 14 36 1c 1c
FIXUPS: e6ac 11b ffffeab8 43 8c e13 1f 22 22 22 22 22 22 22 22 22 22 18
FIXUPS: e328 11 11 11 11 11 10 11 11 11 11 11 11 11 11 11 11 11 11 fffff8fa
FIXUPS: dd64 5e 1f 1f 1f 1f 1f 1c 1f 1f 1f 1f 1f 1f 1f 1f 1f 1f 1f 1f 1f
FIXUPS: e02b 1f 1f 1f 1f 1f 1f 1f 1f 1f cd6 1f bd 11 11 11 11 11 11 fffff8b9
FIXUPS: e830 1d 17 16 11 11 46 13 14 5b 11 10 34 30 16 3b fffff288 1f 10
FIXUPS: dcff 1e 11 14fa 22 17 e 15 e e e 2b 11 fffff845 1f 10 e 4c 11 4f
FIXUPS: ec29 4d 1f 1f 1f 1f 17 17 1f 1f 1f 1f 1f 1f 1f 1862 31 36 50 a
FIXUPS: 1073d 164 31c 20 110 ffffe749 41 52 1d 22 8a 92 6a 1b 89 2c 29
FIXUPS: f7db 90 6c fffff6d6 1f 19 19 19 106 65 dff 9 2c 9 2c 9 2c 9 3d
FIXUPS: 100ba 84 8d 7e 23 23 23 3a 51 24 51 2a 28 45 2d 2d 28 28 1c 29
FIXUPS: 10579 84 3a fffff497 1b 50 9 2e 9 71 15 1b 51 9 2e 9 6e 15 37 15
FIXUPS: fd98 14 1c 1c 1c 1b 36 3a 9 2e 9 48 9 2e 9 1a8c 23 fffffd08 85
FIXUPS: 117f8 33 8c 34 fffffaf7 3c 136 27 11 d8 7e fffffaa7 88 13 ea 96
FIXUPS: 113b7 fffffab5 33 2c 32 20 2e 14 1b 43 6f ffffea8d 1f9d 8 7 1b
FIXUPS: 11aab 17 af 16 3e e 15 18 c 18 17 a 15 3b 5b 52 6c 29 c d b0 53
FIXUPS: 11f59 53 25 23 fffff9bd 24 114e d 2e 29 19 2c fffffb8c 24 13 62
FIXUPS: 1282f 6b 60 64 54 8c 3b fffffb30 1c 13 6d a5 fffffde0 34 fffffe62
FIXUPS: 1237d 14 8e 2c fffff5d4 11 14 1a4e 81 63 e 13 e f3 19 fc 140 72
FIXUPS: 139bb e fffff8f7 43 ffffff4b fffffa27 a0 7c 78 62 e 13 e eb 9b
FIXUPS: 130e9 a3 e 13 e fffff95c 16de c c c fffed1d2 13 12a98 f 58 28 29
FIXUPS: 13a44 45 29 3a 40 3e 33 4b 59 5a c 19 42 3c a7 19 28 c 21 fffff542
FIXUPS: 133ae e83 fffed539 f 10 10 10 13 13 13 10 29 13 28 15 15 15 15
FIXUPS: 18bf 15 15 15 fffff743 1b 28 b3 1f 82 24 37 19 17 145 58a 1b 28
FIXUPS: 198c 1f 4d 1b 28 12 19 22 127bd c 9 c fffed25b 4b 3e 30 1b 2a 8
FIXUPS: 1600 1b 8 32 11 24 48 2c 48 12adf
